
CWChaoticWithoutProtect.elf:     file format elf32-avr

Sections:
Idx Name          Size      VMA       LMA       File off  Algn
  0 .text         00001960  00000000  00000000  00000094  2**1
                  CONTENTS, ALLOC, LOAD, READONLY, CODE
  1 .data         00000118  00802000  00001960  000019f4  2**0
                  CONTENTS, ALLOC, LOAD, DATA
  2 .bss          0000013a  00802118  00802118  00001b0c  2**0
                  ALLOC
  3 .comment      00000030  00000000  00000000  00001b0c  2**0
                  CONTENTS, READONLY
  4 .note.gnu.avr.deviceinfo 00000040  00000000  00000000  00001b3c  2**2
                  CONTENTS, READONLY
  5 .debug_aranges 00000020  00000000  00000000  00001b80  2**3
                  CONTENTS, READONLY, DEBUGGING
  6 .debug_info   00002105  00000000  00000000  00001ba0  2**0
                  CONTENTS, READONLY, DEBUGGING
  7 .debug_abbrev 00001ecc  00000000  00000000  00003ca5  2**0
                  CONTENTS, READONLY, DEBUGGING
  8 .debug_line   00000333  00000000  00000000  00005b71  2**0
                  CONTENTS, READONLY, DEBUGGING
  9 .debug_str    00001561  00000000  00000000  00005ea4  2**0
                  CONTENTS, READONLY, DEBUGGING

Disassembly of section .text:

00000000 <__vectors>:
       0:	c4 c0       	rjmp	.+392    	; 0x18a <__ctors_end>
       2:	00 00       	nop
       4:	e3 c0       	rjmp	.+454    	; 0x1cc <__bad_interrupt>
       6:	00 00       	nop
       8:	e1 c0       	rjmp	.+450    	; 0x1cc <__bad_interrupt>
       a:	00 00       	nop
       c:	df c0       	rjmp	.+446    	; 0x1cc <__bad_interrupt>
       e:	00 00       	nop
      10:	dd c0       	rjmp	.+442    	; 0x1cc <__bad_interrupt>
      12:	00 00       	nop
      14:	db c0       	rjmp	.+438    	; 0x1cc <__bad_interrupt>
      16:	00 00       	nop
      18:	d9 c0       	rjmp	.+434    	; 0x1cc <__bad_interrupt>
      1a:	00 00       	nop
      1c:	d7 c0       	rjmp	.+430    	; 0x1cc <__bad_interrupt>
      1e:	00 00       	nop
      20:	d5 c0       	rjmp	.+426    	; 0x1cc <__bad_interrupt>
      22:	00 00       	nop
      24:	d3 c0       	rjmp	.+422    	; 0x1cc <__bad_interrupt>
      26:	00 00       	nop
      28:	d1 c0       	rjmp	.+418    	; 0x1cc <__bad_interrupt>
      2a:	00 00       	nop
      2c:	cf c0       	rjmp	.+414    	; 0x1cc <__bad_interrupt>
      2e:	00 00       	nop
      30:	cd c0       	rjmp	.+410    	; 0x1cc <__bad_interrupt>
      32:	00 00       	nop
      34:	cb c0       	rjmp	.+406    	; 0x1cc <__bad_interrupt>
      36:	00 00       	nop
      38:	84 c5       	rjmp	.+2824   	; 0xb42 <__vector_14>
      3a:	00 00       	nop
      3c:	af c5       	rjmp	.+2910   	; 0xb9c <__vector_15>
      3e:	00 00       	nop
      40:	da c5       	rjmp	.+2996   	; 0xbf6 <__vector_16>
      42:	00 00       	nop
      44:	05 c6       	rjmp	.+3082   	; 0xc50 <__vector_17>
      46:	00 00       	nop
      48:	30 c6       	rjmp	.+3168   	; 0xcaa <__vector_18>
      4a:	00 00       	nop
      4c:	5b c6       	rjmp	.+3254   	; 0xd04 <__vector_19>
      4e:	00 00       	nop
      50:	86 c6       	rjmp	.+3340   	; 0xd5e <__vector_20>
      52:	00 00       	nop
      54:	b1 c6       	rjmp	.+3426   	; 0xdb8 <__vector_21>
      56:	00 00       	nop
      58:	dc c6       	rjmp	.+3512   	; 0xe12 <__vector_22>
      5a:	00 00       	nop
      5c:	07 c7       	rjmp	.+3598   	; 0xe6c <__vector_23>
      5e:	00 00       	nop
      60:	b5 c0       	rjmp	.+362    	; 0x1cc <__bad_interrupt>
      62:	00 00       	nop
      64:	b3 c0       	rjmp	.+358    	; 0x1cc <__bad_interrupt>
      66:	00 00       	nop
      68:	b1 c0       	rjmp	.+354    	; 0x1cc <__bad_interrupt>
      6a:	00 00       	nop
      6c:	af c0       	rjmp	.+350    	; 0x1cc <__bad_interrupt>
      6e:	00 00       	nop
      70:	ad c0       	rjmp	.+346    	; 0x1cc <__bad_interrupt>
      72:	00 00       	nop
      74:	ab c0       	rjmp	.+342    	; 0x1cc <__bad_interrupt>
      76:	00 00       	nop
      78:	a9 c0       	rjmp	.+338    	; 0x1cc <__bad_interrupt>
      7a:	00 00       	nop
      7c:	a7 c0       	rjmp	.+334    	; 0x1cc <__bad_interrupt>
      7e:	00 00       	nop
      80:	a5 c0       	rjmp	.+330    	; 0x1cc <__bad_interrupt>
      82:	00 00       	nop
      84:	a3 c0       	rjmp	.+326    	; 0x1cc <__bad_interrupt>
      86:	00 00       	nop
      88:	a1 c0       	rjmp	.+322    	; 0x1cc <__bad_interrupt>
      8a:	00 00       	nop
      8c:	9f c0       	rjmp	.+318    	; 0x1cc <__bad_interrupt>
      8e:	00 00       	nop
      90:	9d c0       	rjmp	.+314    	; 0x1cc <__bad_interrupt>
      92:	00 00       	nop
      94:	9b c0       	rjmp	.+310    	; 0x1cc <__bad_interrupt>
      96:	00 00       	nop
      98:	99 c0       	rjmp	.+306    	; 0x1cc <__bad_interrupt>
      9a:	00 00       	nop
      9c:	97 c0       	rjmp	.+302    	; 0x1cc <__bad_interrupt>
      9e:	00 00       	nop
      a0:	95 c0       	rjmp	.+298    	; 0x1cc <__bad_interrupt>
      a2:	00 00       	nop
      a4:	93 c0       	rjmp	.+294    	; 0x1cc <__bad_interrupt>
      a6:	00 00       	nop
      a8:	91 c0       	rjmp	.+290    	; 0x1cc <__bad_interrupt>
      aa:	00 00       	nop
      ac:	8f c0       	rjmp	.+286    	; 0x1cc <__bad_interrupt>
      ae:	00 00       	nop
      b0:	8d c0       	rjmp	.+282    	; 0x1cc <__bad_interrupt>
      b2:	00 00       	nop
      b4:	8b c0       	rjmp	.+278    	; 0x1cc <__bad_interrupt>
      b6:	00 00       	nop
      b8:	89 c0       	rjmp	.+274    	; 0x1cc <__bad_interrupt>
      ba:	00 00       	nop
      bc:	0c 94 71 08 	jmp	0x10e2	; 0x10e2 <__vector_47>
      c0:	0c 94 9e 08 	jmp	0x113c	; 0x113c <__vector_48>
      c4:	0c 94 cb 08 	jmp	0x1196	; 0x1196 <__vector_49>
      c8:	0c 94 f8 08 	jmp	0x11f0	; 0x11f0 <__vector_50>
      cc:	0c 94 25 09 	jmp	0x124a	; 0x124a <__vector_51>
      d0:	0c 94 52 09 	jmp	0x12a4	; 0x12a4 <__vector_52>
      d4:	7b c0       	rjmp	.+246    	; 0x1cc <__bad_interrupt>
      d6:	00 00       	nop
      d8:	79 c0       	rjmp	.+242    	; 0x1cc <__bad_interrupt>
      da:	00 00       	nop
      dc:	77 c0       	rjmp	.+238    	; 0x1cc <__bad_interrupt>
      de:	00 00       	nop
      e0:	75 c0       	rjmp	.+234    	; 0x1cc <__bad_interrupt>
      e2:	00 00       	nop
      e4:	73 c0       	rjmp	.+230    	; 0x1cc <__bad_interrupt>
      e6:	00 00       	nop
      e8:	71 c0       	rjmp	.+226    	; 0x1cc <__bad_interrupt>
      ea:	00 00       	nop
      ec:	6f c0       	rjmp	.+222    	; 0x1cc <__bad_interrupt>
      ee:	00 00       	nop
      f0:	6d c0       	rjmp	.+218    	; 0x1cc <__bad_interrupt>
      f2:	00 00       	nop
      f4:	6b c0       	rjmp	.+214    	; 0x1cc <__bad_interrupt>
      f6:	00 00       	nop
      f8:	69 c0       	rjmp	.+210    	; 0x1cc <__bad_interrupt>
      fa:	00 00       	nop
      fc:	67 c0       	rjmp	.+206    	; 0x1cc <__bad_interrupt>
      fe:	00 00       	nop
     100:	65 c0       	rjmp	.+202    	; 0x1cc <__bad_interrupt>
     102:	00 00       	nop
     104:	63 c0       	rjmp	.+198    	; 0x1cc <__bad_interrupt>
     106:	00 00       	nop
     108:	61 c0       	rjmp	.+194    	; 0x1cc <__bad_interrupt>
     10a:	00 00       	nop
     10c:	5f c0       	rjmp	.+190    	; 0x1cc <__bad_interrupt>
     10e:	00 00       	nop
     110:	5d c0       	rjmp	.+186    	; 0x1cc <__bad_interrupt>
     112:	00 00       	nop
     114:	5b c0       	rjmp	.+182    	; 0x1cc <__bad_interrupt>
     116:	00 00       	nop
     118:	59 c0       	rjmp	.+178    	; 0x1cc <__bad_interrupt>
     11a:	00 00       	nop
     11c:	57 c0       	rjmp	.+174    	; 0x1cc <__bad_interrupt>
     11e:	00 00       	nop
     120:	55 c0       	rjmp	.+170    	; 0x1cc <__bad_interrupt>
     122:	00 00       	nop
     124:	53 c0       	rjmp	.+166    	; 0x1cc <__bad_interrupt>
     126:	00 00       	nop
     128:	51 c0       	rjmp	.+162    	; 0x1cc <__bad_interrupt>
     12a:	00 00       	nop
     12c:	4f c0       	rjmp	.+158    	; 0x1cc <__bad_interrupt>
     12e:	00 00       	nop
     130:	4d c0       	rjmp	.+154    	; 0x1cc <__bad_interrupt>
     132:	00 00       	nop
     134:	c8 c6       	rjmp	.+3472   	; 0xec6 <__vector_77>
     136:	00 00       	nop
     138:	f3 c6       	rjmp	.+3558   	; 0xf20 <__vector_78>
     13a:	00 00       	nop
     13c:	1e c7       	rjmp	.+3644   	; 0xf7a <__vector_79>
     13e:	00 00       	nop
     140:	49 c7       	rjmp	.+3730   	; 0xfd4 <__vector_80>
     142:	00 00       	nop
     144:	74 c7       	rjmp	.+3816   	; 0x102e <__vector_81>
     146:	00 00       	nop
     148:	9f c7       	rjmp	.+3902   	; 0x1088 <__vector_82>
     14a:	00 00       	nop
     14c:	3f c0       	rjmp	.+126    	; 0x1cc <__bad_interrupt>
     14e:	00 00       	nop
     150:	3d c0       	rjmp	.+122    	; 0x1cc <__bad_interrupt>
     152:	00 00       	nop
     154:	3b c0       	rjmp	.+118    	; 0x1cc <__bad_interrupt>
     156:	00 00       	nop
     158:	39 c0       	rjmp	.+114    	; 0x1cc <__bad_interrupt>
     15a:	00 00       	nop
     15c:	37 c0       	rjmp	.+110    	; 0x1cc <__bad_interrupt>
     15e:	00 00       	nop
     160:	35 c0       	rjmp	.+106    	; 0x1cc <__bad_interrupt>
     162:	00 00       	nop
     164:	33 c0       	rjmp	.+102    	; 0x1cc <__bad_interrupt>
     166:	00 00       	nop
     168:	31 c0       	rjmp	.+98     	; 0x1cc <__bad_interrupt>
     16a:	00 00       	nop
     16c:	7e 04       	cpc	r7, r14
     16e:	82 04       	cpc	r8, r2
     170:	86 04       	cpc	r8, r6
     172:	8a 04       	cpc	r8, r10
     174:	8e 04       	cpc	r8, r14
     176:	92 04       	cpc	r9, r2
     178:	96 04       	cpc	r9, r6
     17a:	9a 04       	cpc	r9, r10
     17c:	9e 04       	cpc	r9, r14
     17e:	a2 04       	cpc	r10, r2
     180:	a6 04       	cpc	r10, r6
     182:	aa 04       	cpc	r10, r10
     184:	ae 04       	cpc	r10, r14
     186:	b2 04       	cpc	r11, r2
     188:	b6 04       	cpc	r11, r6

0000018a <__ctors_end>:
     18a:	11 24       	eor	r1, r1
     18c:	1f be       	out	0x3f, r1	; 63
     18e:	cf ef       	ldi	r28, 0xFF	; 255
     190:	cd bf       	out	0x3d, r28	; 61
     192:	df e3       	ldi	r29, 0x3F	; 63
     194:	de bf       	out	0x3e, r29	; 62
     196:	00 e0       	ldi	r16, 0x00	; 0
     198:	0c bf       	out	0x3c, r16	; 60

0000019a <__do_copy_data>:
     19a:	11 e2       	ldi	r17, 0x21	; 33
     19c:	a0 e0       	ldi	r26, 0x00	; 0
     19e:	b0 e2       	ldi	r27, 0x20	; 32
     1a0:	e0 e6       	ldi	r30, 0x60	; 96
     1a2:	f9 e1       	ldi	r31, 0x19	; 25
     1a4:	00 e0       	ldi	r16, 0x00	; 0
     1a6:	0b bf       	out	0x3b, r16	; 59
     1a8:	02 c0       	rjmp	.+4      	; 0x1ae <__do_copy_data+0x14>
     1aa:	07 90       	elpm	r0, Z+
     1ac:	0d 92       	st	X+, r0
     1ae:	a8 31       	cpi	r26, 0x18	; 24
     1b0:	b1 07       	cpc	r27, r17
     1b2:	d9 f7       	brne	.-10     	; 0x1aa <__do_copy_data+0x10>

000001b4 <__do_clear_bss>:
     1b4:	22 e2       	ldi	r18, 0x22	; 34
     1b6:	a8 e1       	ldi	r26, 0x18	; 24
     1b8:	b1 e2       	ldi	r27, 0x21	; 33
     1ba:	01 c0       	rjmp	.+2      	; 0x1be <.do_clear_bss_start>

000001bc <.do_clear_bss_loop>:
     1bc:	1d 92       	st	X+, r1

000001be <.do_clear_bss_start>:
     1be:	a2 35       	cpi	r26, 0x52	; 82
     1c0:	b2 07       	cpc	r27, r18
     1c2:	e1 f7       	brne	.-8      	; 0x1bc <.do_clear_bss_loop>
     1c4:	0e 94 05 0a 	call	0x140a	; 0x140a <main>
     1c8:	0c 94 ae 0c 	jmp	0x195c	; 0x195c <_exit>

000001cc <__bad_interrupt>:
     1cc:	19 cf       	rjmp	.-462    	; 0x0 <__vectors>

000001ce <sysclk_enable_peripheral_clock>:
     1ce:	00 97       	sbiw	r24, 0x00	; 0
     1d0:	09 f4       	brne	.+2      	; 0x1d4 <sysclk_enable_peripheral_clock+0x6>
     1d2:	5e c0       	rjmp	.+188    	; 0x290 <sysclk_enable_peripheral_clock+0xc2>
     1d4:	81 15       	cp	r24, r1
     1d6:	24 e0       	ldi	r18, 0x04	; 4
     1d8:	92 07       	cpc	r25, r18
     1da:	11 f4       	brne	.+4      	; 0x1e0 <sysclk_enable_peripheral_clock+0x12>
     1dc:	64 e0       	ldi	r22, 0x04	; 4
     1de:	05 c0       	rjmp	.+10     	; 0x1ea <sysclk_enable_peripheral_clock+0x1c>
     1e0:	80 38       	cpi	r24, 0x80	; 128
     1e2:	21 e0       	ldi	r18, 0x01	; 1
     1e4:	92 07       	cpc	r25, r18
     1e6:	19 f4       	brne	.+6      	; 0x1ee <sysclk_enable_peripheral_clock+0x20>
     1e8:	62 e0       	ldi	r22, 0x02	; 2
     1ea:	80 e0       	ldi	r24, 0x00	; 0
     1ec:	50 c0       	rjmp	.+160    	; 0x28e <sysclk_enable_peripheral_clock+0xc0>
     1ee:	80 38       	cpi	r24, 0x80	; 128
     1f0:	23 e0       	ldi	r18, 0x03	; 3
     1f2:	92 07       	cpc	r25, r18
     1f4:	11 f4       	brne	.+4      	; 0x1fa <sysclk_enable_peripheral_clock+0x2c>
     1f6:	61 e0       	ldi	r22, 0x01	; 1
     1f8:	05 c0       	rjmp	.+10     	; 0x204 <sysclk_enable_peripheral_clock+0x36>
     1fa:	81 15       	cp	r24, r1
     1fc:	22 e0       	ldi	r18, 0x02	; 2
     1fe:	92 07       	cpc	r25, r18
     200:	19 f4       	brne	.+6      	; 0x208 <sysclk_enable_peripheral_clock+0x3a>
     202:	62 e0       	ldi	r22, 0x02	; 2
     204:	81 e0       	ldi	r24, 0x01	; 1
     206:	43 c0       	rjmp	.+134    	; 0x28e <sysclk_enable_peripheral_clock+0xc0>
     208:	81 15       	cp	r24, r1
     20a:	28 e0       	ldi	r18, 0x08	; 8
     20c:	92 07       	cpc	r25, r18
     20e:	11 f4       	brne	.+4      	; 0x214 <sysclk_enable_peripheral_clock+0x46>
     210:	61 e0       	ldi	r22, 0x01	; 1
     212:	36 c0       	rjmp	.+108    	; 0x280 <sysclk_enable_peripheral_clock+0xb2>
     214:	81 15       	cp	r24, r1
     216:	29 e0       	ldi	r18, 0x09	; 9
     218:	92 07       	cpc	r25, r18
     21a:	11 f4       	brne	.+4      	; 0x220 <sysclk_enable_peripheral_clock+0x52>
     21c:	61 e0       	ldi	r22, 0x01	; 1
     21e:	29 c0       	rjmp	.+82     	; 0x272 <sysclk_enable_peripheral_clock+0xa4>
     220:	81 15       	cp	r24, r1
     222:	2a e0       	ldi	r18, 0x0A	; 10
     224:	92 07       	cpc	r25, r18
     226:	11 f4       	brne	.+4      	; 0x22c <sysclk_enable_peripheral_clock+0x5e>
     228:	61 e0       	ldi	r22, 0x01	; 1
     22a:	30 c0       	rjmp	.+96     	; 0x28c <sysclk_enable_peripheral_clock+0xbe>
     22c:	80 34       	cpi	r24, 0x40	; 64
     22e:	28 e0       	ldi	r18, 0x08	; 8
     230:	92 07       	cpc	r25, r18
     232:	11 f4       	brne	.+4      	; 0x238 <sysclk_enable_peripheral_clock+0x6a>
     234:	62 e0       	ldi	r22, 0x02	; 2
     236:	24 c0       	rjmp	.+72     	; 0x280 <sysclk_enable_peripheral_clock+0xb2>
     238:	80 39       	cpi	r24, 0x90	; 144
     23a:	28 e0       	ldi	r18, 0x08	; 8
     23c:	92 07       	cpc	r25, r18
     23e:	11 f4       	brne	.+4      	; 0x244 <sysclk_enable_peripheral_clock+0x76>
     240:	64 e0       	ldi	r22, 0x04	; 4
     242:	1e c0       	rjmp	.+60     	; 0x280 <sysclk_enable_peripheral_clock+0xb2>
     244:	80 3c       	cpi	r24, 0xC0	; 192
     246:	28 e0       	ldi	r18, 0x08	; 8
     248:	92 07       	cpc	r25, r18
     24a:	11 f4       	brne	.+4      	; 0x250 <sysclk_enable_peripheral_clock+0x82>
     24c:	68 e0       	ldi	r22, 0x08	; 8
     24e:	18 c0       	rjmp	.+48     	; 0x280 <sysclk_enable_peripheral_clock+0xb2>
     250:	80 3c       	cpi	r24, 0xC0	; 192
     252:	29 e0       	ldi	r18, 0x09	; 9
     254:	92 07       	cpc	r25, r18
     256:	11 f4       	brne	.+4      	; 0x25c <sysclk_enable_peripheral_clock+0x8e>
     258:	68 e0       	ldi	r22, 0x08	; 8
     25a:	0b c0       	rjmp	.+22     	; 0x272 <sysclk_enable_peripheral_clock+0xa4>
     25c:	80 3a       	cpi	r24, 0xA0	; 160
     25e:	28 e0       	ldi	r18, 0x08	; 8
     260:	92 07       	cpc	r25, r18
     262:	11 f4       	brne	.+4      	; 0x268 <sysclk_enable_peripheral_clock+0x9a>
     264:	60 e1       	ldi	r22, 0x10	; 16
     266:	0c c0       	rjmp	.+24     	; 0x280 <sysclk_enable_peripheral_clock+0xb2>
     268:	80 3a       	cpi	r24, 0xA0	; 160
     26a:	29 e0       	ldi	r18, 0x09	; 9
     26c:	92 07       	cpc	r25, r18
     26e:	19 f4       	brne	.+6      	; 0x276 <sysclk_enable_peripheral_clock+0xa8>
     270:	60 e1       	ldi	r22, 0x10	; 16
     272:	84 e0       	ldi	r24, 0x04	; 4
     274:	0c c0       	rjmp	.+24     	; 0x28e <sysclk_enable_peripheral_clock+0xc0>
     276:	80 38       	cpi	r24, 0x80	; 128
     278:	24 e0       	ldi	r18, 0x04	; 4
     27a:	92 07       	cpc	r25, r18
     27c:	19 f4       	brne	.+6      	; 0x284 <sysclk_enable_peripheral_clock+0xb6>
     27e:	60 e4       	ldi	r22, 0x40	; 64
     280:	83 e0       	ldi	r24, 0x03	; 3
     282:	05 c0       	rjmp	.+10     	; 0x28e <sysclk_enable_peripheral_clock+0xc0>
     284:	80 3a       	cpi	r24, 0xA0	; 160
     286:	94 40       	sbci	r25, 0x04	; 4
     288:	19 f4       	brne	.+6      	; 0x290 <sysclk_enable_peripheral_clock+0xc2>
     28a:	60 e4       	ldi	r22, 0x40	; 64
     28c:	85 e0       	ldi	r24, 0x05	; 5
     28e:	3b c4       	rjmp	.+2166   	; 0xb06 <sysclk_enable_module>
     290:	08 95       	ret

00000292 <usart_putchar>:
     292:	fc 01       	movw	r30, r24
     294:	21 81       	ldd	r18, Z+1	; 0x01
     296:	25 ff       	sbrs	r18, 5
     298:	fc cf       	rjmp	.-8      	; 0x292 <usart_putchar>
     29a:	60 83       	st	Z, r22
     29c:	80 e0       	ldi	r24, 0x00	; 0
     29e:	90 e0       	ldi	r25, 0x00	; 0
     2a0:	08 95       	ret

000002a2 <usart_getchar>:
     2a2:	fc 01       	movw	r30, r24
     2a4:	21 81       	ldd	r18, Z+1	; 0x01
     2a6:	27 ff       	sbrs	r18, 7
     2a8:	fc cf       	rjmp	.-8      	; 0x2a2 <usart_getchar>
     2aa:	80 81       	ld	r24, Z
     2ac:	08 95       	ret

000002ae <usart_set_baudrate>:
     2ae:	8f 92       	push	r8
     2b0:	9f 92       	push	r9
     2b2:	af 92       	push	r10
     2b4:	bf 92       	push	r11
     2b6:	cf 92       	push	r12
     2b8:	df 92       	push	r13
     2ba:	ef 92       	push	r14
     2bc:	ff 92       	push	r15
     2be:	0f 93       	push	r16
     2c0:	1f 93       	push	r17
     2c2:	cf 93       	push	r28
     2c4:	df 93       	push	r29
     2c6:	ec 01       	movw	r28, r24
     2c8:	6a 01       	movw	r12, r20
     2ca:	7b 01       	movw	r14, r22
     2cc:	48 01       	movw	r8, r16
     2ce:	59 01       	movw	r10, r18
     2d0:	8c 81       	ldd	r24, Y+4	; 0x04
     2d2:	b9 01       	movw	r22, r18
     2d4:	a8 01       	movw	r20, r16
     2d6:	82 ff       	sbrs	r24, 2
     2d8:	11 c0       	rjmp	.+34     	; 0x2fc <usart_set_baudrate+0x4e>
     2da:	33 e0       	ldi	r19, 0x03	; 3
     2dc:	76 95       	lsr	r23
     2de:	67 95       	ror	r22
     2e0:	57 95       	ror	r21
     2e2:	47 95       	ror	r20
     2e4:	3a 95       	dec	r19
     2e6:	d1 f7       	brne	.-12     	; 0x2dc <usart_set_baudrate+0x2e>
     2e8:	d5 01       	movw	r26, r10
     2ea:	c4 01       	movw	r24, r8
     2ec:	e6 e1       	ldi	r30, 0x16	; 22
     2ee:	b6 95       	lsr	r27
     2f0:	a7 95       	ror	r26
     2f2:	97 95       	ror	r25
     2f4:	87 95       	ror	r24
     2f6:	ea 95       	dec	r30
     2f8:	d1 f7       	brne	.-12     	; 0x2ee <usart_set_baudrate+0x40>
     2fa:	10 c0       	rjmp	.+32     	; 0x31c <usart_set_baudrate+0x6e>
     2fc:	94 e0       	ldi	r25, 0x04	; 4
     2fe:	76 95       	lsr	r23
     300:	67 95       	ror	r22
     302:	57 95       	ror	r21
     304:	47 95       	ror	r20
     306:	9a 95       	dec	r25
     308:	d1 f7       	brne	.-12     	; 0x2fe <usart_set_baudrate+0x50>
     30a:	d9 01       	movw	r26, r18
     30c:	c8 01       	movw	r24, r16
     30e:	27 e1       	ldi	r18, 0x17	; 23
     310:	b6 95       	lsr	r27
     312:	a7 95       	ror	r26
     314:	97 95       	ror	r25
     316:	87 95       	ror	r24
     318:	2a 95       	dec	r18
     31a:	d1 f7       	brne	.-12     	; 0x310 <usart_set_baudrate+0x62>
     31c:	4c 15       	cp	r20, r12
     31e:	5d 05       	cpc	r21, r13
     320:	6e 05       	cpc	r22, r14
     322:	7f 05       	cpc	r23, r15
     324:	08 f4       	brcc	.+2      	; 0x328 <usart_set_baudrate+0x7a>
     326:	98 c0       	rjmp	.+304    	; 0x458 <__LOCK_REGION_LENGTH__+0x58>
     328:	c8 16       	cp	r12, r24
     32a:	d9 06       	cpc	r13, r25
     32c:	ea 06       	cpc	r14, r26
     32e:	fb 06       	cpc	r15, r27
     330:	08 f4       	brcc	.+2      	; 0x334 <usart_set_baudrate+0x86>
     332:	92 c0       	rjmp	.+292    	; 0x458 <__LOCK_REGION_LENGTH__+0x58>
     334:	8c 81       	ldd	r24, Y+4	; 0x04
     336:	82 fd       	sbrc	r24, 2
     338:	04 c0       	rjmp	.+8      	; 0x342 <usart_set_baudrate+0x94>
     33a:	cc 0c       	add	r12, r12
     33c:	dd 1c       	adc	r13, r13
     33e:	ee 1c       	adc	r14, r14
     340:	ff 1c       	adc	r15, r15
     342:	c5 01       	movw	r24, r10
     344:	b4 01       	movw	r22, r8
     346:	a7 01       	movw	r20, r14
     348:	96 01       	movw	r18, r12
     34a:	0e 94 84 0c 	call	0x1908	; 0x1908 <__udivmodsi4>
     34e:	19 ef       	ldi	r17, 0xF9	; 249
     350:	8f ef       	ldi	r24, 0xFF	; 255
     352:	90 e0       	ldi	r25, 0x00	; 0
     354:	a0 e0       	ldi	r26, 0x00	; 0
     356:	b0 e0       	ldi	r27, 0x00	; 0
     358:	28 17       	cp	r18, r24
     35a:	39 07       	cpc	r19, r25
     35c:	4a 07       	cpc	r20, r26
     35e:	5b 07       	cpc	r21, r27
     360:	58 f0       	brcs	.+22     	; 0x378 <usart_set_baudrate+0xca>
     362:	88 0f       	add	r24, r24
     364:	99 1f       	adc	r25, r25
     366:	aa 1f       	adc	r26, r26
     368:	bb 1f       	adc	r27, r27
     36a:	1d 3f       	cpi	r17, 0xFD	; 253
     36c:	0c f4       	brge	.+2      	; 0x370 <usart_set_baudrate+0xc2>
     36e:	81 60       	ori	r24, 0x01	; 1
     370:	1f 5f       	subi	r17, 0xFF	; 255
     372:	17 30       	cpi	r17, 0x07	; 7
     374:	89 f7       	brne	.-30     	; 0x358 <usart_set_baudrate+0xaa>
     376:	49 c0       	rjmp	.+146    	; 0x40a <__LOCK_REGION_LENGTH__+0xa>
     378:	17 ff       	sbrs	r17, 7
     37a:	47 c0       	rjmp	.+142    	; 0x40a <__LOCK_REGION_LENGTH__+0xa>
     37c:	d7 01       	movw	r26, r14
     37e:	c6 01       	movw	r24, r12
     380:	f3 e0       	ldi	r31, 0x03	; 3
     382:	88 0f       	add	r24, r24
     384:	99 1f       	adc	r25, r25
     386:	aa 1f       	adc	r26, r26
     388:	bb 1f       	adc	r27, r27
     38a:	fa 95       	dec	r31
     38c:	d1 f7       	brne	.-12     	; 0x382 <usart_set_baudrate+0xd4>
     38e:	88 1a       	sub	r8, r24
     390:	99 0a       	sbc	r9, r25
     392:	aa 0a       	sbc	r10, r26
     394:	bb 0a       	sbc	r11, r27
     396:	81 2f       	mov	r24, r17
     398:	01 2e       	mov	r0, r17
     39a:	00 0c       	add	r0, r0
     39c:	99 0b       	sbc	r25, r25
     39e:	1e 3f       	cpi	r17, 0xFE	; 254
     3a0:	dc f4       	brge	.+54     	; 0x3d8 <usart_set_baudrate+0x12a>
     3a2:	2d ef       	ldi	r18, 0xFD	; 253
     3a4:	3f ef       	ldi	r19, 0xFF	; 255
     3a6:	a9 01       	movw	r20, r18
     3a8:	48 1b       	sub	r20, r24
     3aa:	59 0b       	sbc	r21, r25
     3ac:	04 c0       	rjmp	.+8      	; 0x3b6 <usart_set_baudrate+0x108>
     3ae:	88 0c       	add	r8, r8
     3b0:	99 1c       	adc	r9, r9
     3b2:	aa 1c       	adc	r10, r10
     3b4:	bb 1c       	adc	r11, r11
     3b6:	4a 95       	dec	r20
     3b8:	d2 f7       	brpl	.-12     	; 0x3ae <usart_set_baudrate+0x100>
     3ba:	d7 01       	movw	r26, r14
     3bc:	c6 01       	movw	r24, r12
     3be:	b6 95       	lsr	r27
     3c0:	a7 95       	ror	r26
     3c2:	97 95       	ror	r25
     3c4:	87 95       	ror	r24
     3c6:	bc 01       	movw	r22, r24
     3c8:	cd 01       	movw	r24, r26
     3ca:	68 0d       	add	r22, r8
     3cc:	79 1d       	adc	r23, r9
     3ce:	8a 1d       	adc	r24, r10
     3d0:	9b 1d       	adc	r25, r11
     3d2:	a7 01       	movw	r20, r14
     3d4:	96 01       	movw	r18, r12
     3d6:	16 c0       	rjmp	.+44     	; 0x404 <__LOCK_REGION_LENGTH__+0x4>
     3d8:	03 96       	adiw	r24, 0x03	; 3
     3da:	a7 01       	movw	r20, r14
     3dc:	96 01       	movw	r18, r12
     3de:	04 c0       	rjmp	.+8      	; 0x3e8 <usart_set_baudrate+0x13a>
     3e0:	22 0f       	add	r18, r18
     3e2:	33 1f       	adc	r19, r19
     3e4:	44 1f       	adc	r20, r20
     3e6:	55 1f       	adc	r21, r21
     3e8:	8a 95       	dec	r24
     3ea:	d2 f7       	brpl	.-12     	; 0x3e0 <usart_set_baudrate+0x132>
     3ec:	da 01       	movw	r26, r20
     3ee:	c9 01       	movw	r24, r18
     3f0:	b6 95       	lsr	r27
     3f2:	a7 95       	ror	r26
     3f4:	97 95       	ror	r25
     3f6:	87 95       	ror	r24
     3f8:	bc 01       	movw	r22, r24
     3fa:	cd 01       	movw	r24, r26
     3fc:	68 0d       	add	r22, r8
     3fe:	79 1d       	adc	r23, r9
     400:	8a 1d       	adc	r24, r10
     402:	9b 1d       	adc	r25, r11
     404:	0e 94 84 0c 	call	0x1908	; 0x1908 <__udivmodsi4>
     408:	1d c0       	rjmp	.+58     	; 0x444 <__LOCK_REGION_LENGTH__+0x44>
     40a:	83 e0       	ldi	r24, 0x03	; 3
     40c:	81 0f       	add	r24, r17
     40e:	a7 01       	movw	r20, r14
     410:	96 01       	movw	r18, r12
     412:	04 c0       	rjmp	.+8      	; 0x41c <__LOCK_REGION_LENGTH__+0x1c>
     414:	22 0f       	add	r18, r18
     416:	33 1f       	adc	r19, r19
     418:	44 1f       	adc	r20, r20
     41a:	55 1f       	adc	r21, r21
     41c:	8a 95       	dec	r24
     41e:	d2 f7       	brpl	.-12     	; 0x414 <__LOCK_REGION_LENGTH__+0x14>
     420:	da 01       	movw	r26, r20
     422:	c9 01       	movw	r24, r18
     424:	b6 95       	lsr	r27
     426:	a7 95       	ror	r26
     428:	97 95       	ror	r25
     42a:	87 95       	ror	r24
     42c:	bc 01       	movw	r22, r24
     42e:	cd 01       	movw	r24, r26
     430:	68 0d       	add	r22, r8
     432:	79 1d       	adc	r23, r9
     434:	8a 1d       	adc	r24, r10
     436:	9b 1d       	adc	r25, r11
     438:	0e 94 84 0c 	call	0x1908	; 0x1908 <__udivmodsi4>
     43c:	21 50       	subi	r18, 0x01	; 1
     43e:	31 09       	sbc	r19, r1
     440:	41 09       	sbc	r20, r1
     442:	51 09       	sbc	r21, r1
     444:	93 2f       	mov	r25, r19
     446:	9f 70       	andi	r25, 0x0F	; 15
     448:	81 2f       	mov	r24, r17
     44a:	82 95       	swap	r24
     44c:	80 7f       	andi	r24, 0xF0	; 240
     44e:	89 2b       	or	r24, r25
     450:	8f 83       	std	Y+7, r24	; 0x07
     452:	2e 83       	std	Y+6, r18	; 0x06
     454:	81 e0       	ldi	r24, 0x01	; 1
     456:	01 c0       	rjmp	.+2      	; 0x45a <__LOCK_REGION_LENGTH__+0x5a>
     458:	80 e0       	ldi	r24, 0x00	; 0
     45a:	df 91       	pop	r29
     45c:	cf 91       	pop	r28
     45e:	1f 91       	pop	r17
     460:	0f 91       	pop	r16
     462:	ff 90       	pop	r15
     464:	ef 90       	pop	r14
     466:	df 90       	pop	r13
     468:	cf 90       	pop	r12
     46a:	bf 90       	pop	r11
     46c:	af 90       	pop	r10
     46e:	9f 90       	pop	r9
     470:	8f 90       	pop	r8
     472:	08 95       	ret

00000474 <usart_init_rs232>:
     474:	0f 93       	push	r16
     476:	1f 93       	push	r17
     478:	cf 93       	push	r28
     47a:	df 93       	push	r29
     47c:	ec 01       	movw	r28, r24
     47e:	8b 01       	movw	r16, r22
     480:	a6 de       	rcall	.-692    	; 0x1ce <sysclk_enable_peripheral_clock>
     482:	8d 81       	ldd	r24, Y+5	; 0x05
     484:	8f 73       	andi	r24, 0x3F	; 63
     486:	8d 83       	std	Y+5, r24	; 0x05
     488:	f8 01       	movw	r30, r16
     48a:	95 81       	ldd	r25, Z+5	; 0x05
     48c:	84 81       	ldd	r24, Z+4	; 0x04
     48e:	98 2b       	or	r25, r24
     490:	86 81       	ldd	r24, Z+6	; 0x06
     492:	81 11       	cpse	r24, r1
     494:	88 e0       	ldi	r24, 0x08	; 8
     496:	89 2b       	or	r24, r25
     498:	8d 83       	std	Y+5, r24	; 0x05
     49a:	f8 01       	movw	r30, r16
     49c:	40 81       	ld	r20, Z
     49e:	51 81       	ldd	r21, Z+1	; 0x01
     4a0:	62 81       	ldd	r22, Z+2	; 0x02
     4a2:	73 81       	ldd	r23, Z+3	; 0x03
     4a4:	00 e1       	ldi	r16, 0x10	; 16
     4a6:	15 e7       	ldi	r17, 0x75	; 117
     4a8:	20 e7       	ldi	r18, 0x70	; 112
     4aa:	30 e0       	ldi	r19, 0x00	; 0
     4ac:	ce 01       	movw	r24, r28
     4ae:	ff de       	rcall	.-514    	; 0x2ae <usart_set_baudrate>
     4b0:	9c 81       	ldd	r25, Y+4	; 0x04
     4b2:	98 60       	ori	r25, 0x08	; 8
     4b4:	9c 83       	std	Y+4, r25	; 0x04
     4b6:	9c 81       	ldd	r25, Y+4	; 0x04
     4b8:	90 61       	ori	r25, 0x10	; 16
     4ba:	9c 83       	std	Y+4, r25	; 0x04
     4bc:	df 91       	pop	r29
     4be:	cf 91       	pop	r28
     4c0:	1f 91       	pop	r17
     4c2:	0f 91       	pop	r16
     4c4:	08 95       	ret

000004c6 <hex_decode>:
     4c6:	cf 93       	push	r28
     4c8:	df 93       	push	r29
     4ca:	c4 2f       	mov	r28, r20
     4cc:	d5 2f       	mov	r29, r21
     4ce:	dc 01       	movw	r26, r24
     4d0:	9d 01       	movw	r18, r26
     4d2:	28 1b       	sub	r18, r24
     4d4:	39 0b       	sbc	r19, r25
     4d6:	26 17       	cp	r18, r22
     4d8:	37 07       	cpc	r19, r23
     4da:	28 f5       	brcc	.+74     	; 0x526 <hex_decode+0x60>
     4dc:	2c 91       	ld	r18, X
     4de:	2a 33       	cpi	r18, 0x3A	; 58
     4e0:	3c f0       	brlt	.+14     	; 0x4f0 <hex_decode+0x2a>
     4e2:	20 62       	ori	r18, 0x20	; 32
     4e4:	02 2e       	mov	r0, r18
     4e6:	00 0c       	add	r0, r0
     4e8:	33 0b       	sbc	r19, r19
     4ea:	27 55       	subi	r18, 0x57	; 87
     4ec:	31 09       	sbc	r19, r1
     4ee:	05 c0       	rjmp	.+10     	; 0x4fa <hex_decode+0x34>
     4f0:	02 2e       	mov	r0, r18
     4f2:	00 0c       	add	r0, r0
     4f4:	33 0b       	sbc	r19, r19
     4f6:	20 53       	subi	r18, 0x30	; 48
     4f8:	31 09       	sbc	r19, r1
     4fa:	11 96       	adiw	r26, 0x01	; 1
     4fc:	ec 91       	ld	r30, X
     4fe:	11 97       	sbiw	r26, 0x01	; 1
     500:	ea 33       	cpi	r30, 0x3A	; 58
     502:	3c f0       	brlt	.+14     	; 0x512 <hex_decode+0x4c>
     504:	e0 62       	ori	r30, 0x20	; 32
     506:	0e 2e       	mov	r0, r30
     508:	00 0c       	add	r0, r0
     50a:	ff 0b       	sbc	r31, r31
     50c:	e7 55       	subi	r30, 0x57	; 87
     50e:	f1 09       	sbc	r31, r1
     510:	04 c0       	rjmp	.+8      	; 0x51a <hex_decode+0x54>
     512:	0e 2e       	mov	r0, r30
     514:	00 0c       	add	r0, r0
     516:	ff 0b       	sbc	r31, r31
     518:	f0 97       	sbiw	r30, 0x30	; 48
     51a:	22 95       	swap	r18
     51c:	20 7f       	andi	r18, 0xF0	; 240
     51e:	e2 2b       	or	r30, r18
     520:	e9 93       	st	Y+, r30
     522:	12 96       	adiw	r26, 0x02	; 2
     524:	d5 cf       	rjmp	.-86     	; 0x4d0 <hex_decode+0xa>
     526:	ca 01       	movw	r24, r20
     528:	df 91       	pop	r29
     52a:	cf 91       	pop	r28
     52c:	08 95       	ret

0000052e <hex_print>:
     52e:	1f 93       	push	r17
     530:	cf 93       	push	r28
     532:	df 93       	push	r29
     534:	da 01       	movw	r26, r20
     536:	9c 01       	movw	r18, r24
     538:	26 0f       	add	r18, r22
     53a:	37 1f       	adc	r19, r23
     53c:	82 17       	cp	r24, r18
     53e:	93 07       	cpc	r25, r19
     540:	b9 f0       	breq	.+46     	; 0x570 <hex_print+0x42>
     542:	ec 01       	movw	r28, r24
     544:	fc 01       	movw	r30, r24
     546:	11 91       	ld	r17, Z+
     548:	cf 01       	movw	r24, r30
     54a:	e1 2f       	mov	r30, r17
     54c:	e2 95       	swap	r30
     54e:	ef 70       	andi	r30, 0x0F	; 15
     550:	f0 e0       	ldi	r31, 0x00	; 0
     552:	e0 50       	subi	r30, 0x00	; 0
     554:	f0 4e       	sbci	r31, 0xE0	; 224
     556:	e0 81       	ld	r30, Z
     558:	ec 93       	st	X, r30
     55a:	e8 81       	ld	r30, Y
     55c:	ef 70       	andi	r30, 0x0F	; 15
     55e:	f0 e0       	ldi	r31, 0x00	; 0
     560:	e0 50       	subi	r30, 0x00	; 0
     562:	f0 4e       	sbci	r31, 0xE0	; 224
     564:	e0 81       	ld	r30, Z
     566:	11 96       	adiw	r26, 0x01	; 1
     568:	ec 93       	st	X, r30
     56a:	11 97       	sbiw	r26, 0x01	; 1
     56c:	12 96       	adiw	r26, 0x02	; 2
     56e:	e6 cf       	rjmp	.-52     	; 0x53c <hex_print+0xe>
     570:	66 0f       	add	r22, r22
     572:	77 1f       	adc	r23, r23
     574:	fa 01       	movw	r30, r20
     576:	e6 0f       	add	r30, r22
     578:	f7 1f       	adc	r31, r23
     57a:	10 82       	st	Z, r1
     57c:	df 91       	pop	r29
     57e:	cf 91       	pop	r28
     580:	1f 91       	pop	r17
     582:	08 95       	ret

00000584 <roundKeyGen>:
     584:	7f 92       	push	r7
     586:	8f 92       	push	r8
     588:	9f 92       	push	r9
     58a:	af 92       	push	r10
     58c:	bf 92       	push	r11
     58e:	cf 92       	push	r12
     590:	df 92       	push	r13
     592:	ef 92       	push	r14
     594:	ff 92       	push	r15
     596:	0f 93       	push	r16
     598:	1f 93       	push	r17
     59a:	cf 93       	push	r28
     59c:	df 93       	push	r29
     59e:	6b 01       	movw	r12, r22
     5a0:	7c 01       	movw	r14, r24
     5a2:	74 2e       	mov	r7, r20
     5a4:	05 2f       	mov	r16, r21
     5a6:	c2 e4       	ldi	r28, 0x42	; 66
     5a8:	d2 e2       	ldi	r29, 0x22	; 34
     5aa:	69 91       	ld	r22, Y+
     5ac:	70 e0       	ldi	r23, 0x00	; 0
     5ae:	80 e0       	ldi	r24, 0x00	; 0
     5b0:	90 e0       	ldi	r25, 0x00	; 0
     5b2:	0e 94 6b 0b 	call	0x16d6	; 0x16d6 <__floatunsisf>
     5b6:	20 e0       	ldi	r18, 0x00	; 0
     5b8:	30 e0       	ldi	r19, 0x00	; 0
     5ba:	4a e7       	ldi	r20, 0x7A	; 122
     5bc:	54 e4       	ldi	r21, 0x44	; 68
     5be:	f7 d7       	rcall	.+4078   	; 0x15ae <__divsf3>
     5c0:	2c e5       	ldi	r18, 0x5C	; 92
     5c2:	3f e8       	ldi	r19, 0x8F	; 143
     5c4:	42 e0       	ldi	r20, 0x02	; 2
     5c6:	5f e3       	ldi	r21, 0x3F	; 63
     5c8:	8e d7       	rcall	.+3868   	; 0x14e6 <__addsf3>
     5ca:	4b 01       	movw	r8, r22
     5cc:	5c 01       	movw	r10, r24
     5ce:	14 e1       	ldi	r17, 0x14	; 20
     5d0:	a7 01       	movw	r20, r14
     5d2:	96 01       	movw	r18, r12
     5d4:	c5 01       	movw	r24, r10
     5d6:	b4 01       	movw	r22, r8
     5d8:	0e 94 1d 0c 	call	0x183a	; 0x183a <__gesf2>
     5dc:	18 16       	cp	r1, r24
     5de:	1c f4       	brge	.+6      	; 0x5e6 <roundKeyGen+0x62>
     5e0:	a5 01       	movw	r20, r10
     5e2:	94 01       	movw	r18, r8
     5e4:	12 c0       	rjmp	.+36     	; 0x60a <roundKeyGen+0x86>
     5e6:	a7 01       	movw	r20, r14
     5e8:	96 01       	movw	r18, r12
     5ea:	60 e0       	ldi	r22, 0x00	; 0
     5ec:	70 e0       	ldi	r23, 0x00	; 0
     5ee:	80 e8       	ldi	r24, 0x80	; 128
     5f0:	9f e3       	ldi	r25, 0x3F	; 63
     5f2:	78 d7       	rcall	.+3824   	; 0x14e4 <__subsf3>
     5f4:	6b 01       	movw	r12, r22
     5f6:	7c 01       	movw	r14, r24
     5f8:	a5 01       	movw	r20, r10
     5fa:	94 01       	movw	r18, r8
     5fc:	60 e0       	ldi	r22, 0x00	; 0
     5fe:	70 e0       	ldi	r23, 0x00	; 0
     600:	80 e8       	ldi	r24, 0x80	; 128
     602:	9f e3       	ldi	r25, 0x3F	; 63
     604:	6f d7       	rcall	.+3806   	; 0x14e4 <__subsf3>
     606:	9b 01       	movw	r18, r22
     608:	ac 01       	movw	r20, r24
     60a:	c7 01       	movw	r24, r14
     60c:	b6 01       	movw	r22, r12
     60e:	cf d7       	rcall	.+3998   	; 0x15ae <__divsf3>
     610:	6b 01       	movw	r12, r22
     612:	7c 01       	movw	r14, r24
     614:	11 50       	subi	r17, 0x01	; 1
     616:	e1 f6       	brne	.-72     	; 0x5d0 <roundKeyGen+0x4c>
     618:	82 e2       	ldi	r24, 0x22	; 34
     61a:	c2 35       	cpi	r28, 0x52	; 82
     61c:	d8 07       	cpc	r29, r24
     61e:	09 f0       	breq	.+2      	; 0x622 <roundKeyGen+0x9e>
     620:	c4 cf       	rjmp	.-120    	; 0x5aa <roundKeyGen+0x26>
     622:	c4 e6       	ldi	r28, 0x64	; 100
     624:	a7 01       	movw	r20, r14
     626:	96 01       	movw	r18, r12
     628:	c5 01       	movw	r24, r10
     62a:	b4 01       	movw	r22, r8
     62c:	0e 94 1d 0c 	call	0x183a	; 0x183a <__gesf2>
     630:	18 16       	cp	r1, r24
     632:	1c f4       	brge	.+6      	; 0x63a <roundKeyGen+0xb6>
     634:	a5 01       	movw	r20, r10
     636:	94 01       	movw	r18, r8
     638:	12 c0       	rjmp	.+36     	; 0x65e <roundKeyGen+0xda>
     63a:	a7 01       	movw	r20, r14
     63c:	96 01       	movw	r18, r12
     63e:	60 e0       	ldi	r22, 0x00	; 0
     640:	70 e0       	ldi	r23, 0x00	; 0
     642:	80 e8       	ldi	r24, 0x80	; 128
     644:	9f e3       	ldi	r25, 0x3F	; 63
     646:	4e d7       	rcall	.+3740   	; 0x14e4 <__subsf3>
     648:	6b 01       	movw	r12, r22
     64a:	7c 01       	movw	r14, r24
     64c:	a5 01       	movw	r20, r10
     64e:	94 01       	movw	r18, r8
     650:	60 e0       	ldi	r22, 0x00	; 0
     652:	70 e0       	ldi	r23, 0x00	; 0
     654:	80 e8       	ldi	r24, 0x80	; 128
     656:	9f e3       	ldi	r25, 0x3F	; 63
     658:	45 d7       	rcall	.+3722   	; 0x14e4 <__subsf3>
     65a:	9b 01       	movw	r18, r22
     65c:	ac 01       	movw	r20, r24
     65e:	c7 01       	movw	r24, r14
     660:	b6 01       	movw	r22, r12
     662:	a5 d7       	rcall	.+3914   	; 0x15ae <__divsf3>
     664:	6b 01       	movw	r12, r22
     666:	7c 01       	movw	r14, r24
     668:	c1 50       	subi	r28, 0x01	; 1
     66a:	e1 f6       	brne	.-72     	; 0x624 <roundKeyGen+0xa0>
     66c:	c7 2d       	mov	r28, r7
     66e:	d0 2f       	mov	r29, r16
     670:	8e 01       	movw	r16, r28
     672:	00 5d       	subi	r16, 0xD0	; 208
     674:	1f 4f       	sbci	r17, 0xFF	; 255
     676:	a7 01       	movw	r20, r14
     678:	96 01       	movw	r18, r12
     67a:	c5 01       	movw	r24, r10
     67c:	b4 01       	movw	r22, r8
     67e:	0e 94 1d 0c 	call	0x183a	; 0x183a <__gesf2>
     682:	18 16       	cp	r1, r24
     684:	1c f4       	brge	.+6      	; 0x68c <roundKeyGen+0x108>
     686:	a5 01       	movw	r20, r10
     688:	94 01       	movw	r18, r8
     68a:	12 c0       	rjmp	.+36     	; 0x6b0 <roundKeyGen+0x12c>
     68c:	a7 01       	movw	r20, r14
     68e:	96 01       	movw	r18, r12
     690:	60 e0       	ldi	r22, 0x00	; 0
     692:	70 e0       	ldi	r23, 0x00	; 0
     694:	80 e8       	ldi	r24, 0x80	; 128
     696:	9f e3       	ldi	r25, 0x3F	; 63
     698:	25 d7       	rcall	.+3658   	; 0x14e4 <__subsf3>
     69a:	6b 01       	movw	r12, r22
     69c:	7c 01       	movw	r14, r24
     69e:	a5 01       	movw	r20, r10
     6a0:	94 01       	movw	r18, r8
     6a2:	60 e0       	ldi	r22, 0x00	; 0
     6a4:	70 e0       	ldi	r23, 0x00	; 0
     6a6:	80 e8       	ldi	r24, 0x80	; 128
     6a8:	9f e3       	ldi	r25, 0x3F	; 63
     6aa:	1c d7       	rcall	.+3640   	; 0x14e4 <__subsf3>
     6ac:	9b 01       	movw	r18, r22
     6ae:	ac 01       	movw	r20, r24
     6b0:	c7 01       	movw	r24, r14
     6b2:	b6 01       	movw	r22, r12
     6b4:	7c d7       	rcall	.+3832   	; 0x15ae <__divsf3>
     6b6:	6b 01       	movw	r12, r22
     6b8:	7c 01       	movw	r14, r24
     6ba:	20 e0       	ldi	r18, 0x00	; 0
     6bc:	30 e0       	ldi	r19, 0x00	; 0
     6be:	40 e8       	ldi	r20, 0x80	; 128
     6c0:	53 e4       	ldi	r21, 0x43	; 67
     6c2:	0e 94 21 0c 	call	0x1842	; 0x1842 <__mulsf3>
     6c6:	db d7       	rcall	.+4022   	; 0x167e <__fixunssfsi>
     6c8:	69 93       	st	Y+, r22
     6ca:	0c 17       	cp	r16, r28
     6cc:	1d 07       	cpc	r17, r29
     6ce:	99 f6       	brne	.-90     	; 0x676 <roundKeyGen+0xf2>
     6d0:	a7 01       	movw	r20, r14
     6d2:	96 01       	movw	r18, r12
     6d4:	c5 01       	movw	r24, r10
     6d6:	b4 01       	movw	r22, r8
     6d8:	0e 94 1d 0c 	call	0x183a	; 0x183a <__gesf2>
     6dc:	18 16       	cp	r1, r24
     6de:	1c f4       	brge	.+6      	; 0x6e6 <roundKeyGen+0x162>
     6e0:	a5 01       	movw	r20, r10
     6e2:	94 01       	movw	r18, r8
     6e4:	12 c0       	rjmp	.+36     	; 0x70a <roundKeyGen+0x186>
     6e6:	a7 01       	movw	r20, r14
     6e8:	96 01       	movw	r18, r12
     6ea:	60 e0       	ldi	r22, 0x00	; 0
     6ec:	70 e0       	ldi	r23, 0x00	; 0
     6ee:	80 e8       	ldi	r24, 0x80	; 128
     6f0:	9f e3       	ldi	r25, 0x3F	; 63
     6f2:	f8 d6       	rcall	.+3568   	; 0x14e4 <__subsf3>
     6f4:	6b 01       	movw	r12, r22
     6f6:	7c 01       	movw	r14, r24
     6f8:	a5 01       	movw	r20, r10
     6fa:	94 01       	movw	r18, r8
     6fc:	60 e0       	ldi	r22, 0x00	; 0
     6fe:	70 e0       	ldi	r23, 0x00	; 0
     700:	80 e8       	ldi	r24, 0x80	; 128
     702:	9f e3       	ldi	r25, 0x3F	; 63
     704:	ef d6       	rcall	.+3550   	; 0x14e4 <__subsf3>
     706:	9b 01       	movw	r18, r22
     708:	ac 01       	movw	r20, r24
     70a:	c7 01       	movw	r24, r14
     70c:	b6 01       	movw	r22, r12
     70e:	4f d7       	rcall	.+3742   	; 0x15ae <__divsf3>
     710:	60 93 18 21 	sts	0x2118, r22	; 0x802118 <__data_end>
     714:	70 93 19 21 	sts	0x2119, r23	; 0x802119 <__data_end+0x1>
     718:	80 93 1a 21 	sts	0x211A, r24	; 0x80211a <__data_end+0x2>
     71c:	90 93 1b 21 	sts	0x211B, r25	; 0x80211b <__data_end+0x3>
     720:	df 91       	pop	r29
     722:	cf 91       	pop	r28
     724:	1f 91       	pop	r17
     726:	0f 91       	pop	r16
     728:	ff 90       	pop	r15
     72a:	ef 90       	pop	r14
     72c:	df 90       	pop	r13
     72e:	cf 90       	pop	r12
     730:	bf 90       	pop	r11
     732:	af 90       	pop	r10
     734:	9f 90       	pop	r9
     736:	8f 90       	pop	r8
     738:	7f 90       	pop	r7
     73a:	08 95       	ret

0000073c <encryptionInit>:
     73c:	48 e4       	ldi	r20, 0x48	; 72
     73e:	51 e2       	ldi	r21, 0x21	; 33
     740:	67 e6       	ldi	r22, 0x67	; 103
     742:	74 e4       	ldi	r23, 0x44	; 68
     744:	89 e1       	ldi	r24, 0x19	; 25
     746:	9f e3       	ldi	r25, 0x3F	; 63
     748:	1d cf       	rjmp	.-454    	; 0x584 <roundKeyGen>

0000074a <addroundkey>:
     74a:	fc 01       	movw	r30, r24
     74c:	9c 01       	movw	r18, r24
     74e:	20 5f       	subi	r18, 0xF0	; 240
     750:	3f 4f       	sbci	r19, 0xFF	; 255
     752:	db 01       	movw	r26, r22
     754:	8d 91       	ld	r24, X+
     756:	bd 01       	movw	r22, r26
     758:	90 81       	ld	r25, Z
     75a:	89 27       	eor	r24, r25
     75c:	81 93       	st	Z+, r24
     75e:	e2 17       	cp	r30, r18
     760:	f3 07       	cpc	r31, r19
     762:	b9 f7       	brne	.-18     	; 0x752 <addroundkey+0x8>
     764:	08 95       	ret

00000766 <getboxvalue>:
     766:	fc 01       	movw	r30, r24
     768:	40 96       	adiw	r24, 0x10	; 16
     76a:	20 81       	ld	r18, Z
     76c:	db 01       	movw	r26, r22
     76e:	a2 0f       	add	r26, r18
     770:	b1 1d       	adc	r27, r1
     772:	2c 91       	ld	r18, X
     774:	21 93       	st	Z+, r18
     776:	8e 17       	cp	r24, r30
     778:	9f 07       	cpc	r25, r31
     77a:	b9 f7       	brne	.-18     	; 0x76a <getboxvalue+0x4>
     77c:	08 95       	ret

0000077e <XTIME>:
     77e:	28 2f       	mov	r18, r24
     780:	30 e0       	ldi	r19, 0x00	; 0
     782:	22 0f       	add	r18, r18
     784:	33 1f       	adc	r19, r19
     786:	87 fd       	sbrc	r24, 7
     788:	02 c0       	rjmp	.+4      	; 0x78e <XTIME+0x10>
     78a:	80 e0       	ldi	r24, 0x00	; 0
     78c:	01 c0       	rjmp	.+2      	; 0x790 <XTIME+0x12>
     78e:	8b e1       	ldi	r24, 0x1B	; 27
     790:	82 27       	eor	r24, r18
     792:	08 95       	ret

00000794 <multiply>:
     794:	cf 92       	push	r12
     796:	df 92       	push	r13
     798:	ef 92       	push	r14
     79a:	ff 92       	push	r15
     79c:	0f 93       	push	r16
     79e:	1f 93       	push	r17
     7a0:	cf 93       	push	r28
     7a2:	df 93       	push	r29
     7a4:	cd b7       	in	r28, 0x3d	; 61
     7a6:	de b7       	in	r29, 0x3e	; 62
     7a8:	28 97       	sbiw	r28, 0x08	; 8
     7aa:	cd bf       	out	0x3d, r28	; 61
     7ac:	de bf       	out	0x3e, r29	; 62
     7ae:	e8 2e       	mov	r14, r24
     7b0:	f6 2e       	mov	r15, r22
     7b2:	fe 01       	movw	r30, r28
     7b4:	31 96       	adiw	r30, 0x01	; 1
     7b6:	88 e0       	ldi	r24, 0x08	; 8
     7b8:	df 01       	movw	r26, r30
     7ba:	1d 92       	st	X+, r1
     7bc:	8a 95       	dec	r24
     7be:	e9 f7       	brne	.-6      	; 0x7ba <multiply+0x26>
     7c0:	e9 82       	std	Y+1, r14	; 0x01
     7c2:	8f 01       	movw	r16, r30
     7c4:	6e 01       	movw	r12, r28
     7c6:	b8 e0       	ldi	r27, 0x08	; 8
     7c8:	cb 0e       	add	r12, r27
     7ca:	d1 1c       	adc	r13, r1
     7cc:	f8 01       	movw	r30, r16
     7ce:	81 91       	ld	r24, Z+
     7d0:	8f 01       	movw	r16, r30
     7d2:	d5 df       	rcall	.-86     	; 0x77e <XTIME>
     7d4:	d8 01       	movw	r26, r16
     7d6:	8c 93       	st	X, r24
     7d8:	c0 16       	cp	r12, r16
     7da:	d1 06       	cpc	r13, r17
     7dc:	b9 f7       	brne	.-18     	; 0x7cc <multiply+0x38>
     7de:	8f 2d       	mov	r24, r15
     7e0:	81 70       	andi	r24, 0x01	; 1
     7e2:	8e 9d       	mul	r24, r14
     7e4:	80 2d       	mov	r24, r0
     7e6:	11 24       	eor	r1, r1
     7e8:	fe 01       	movw	r30, r28
     7ea:	32 96       	adiw	r30, 0x02	; 2
     7ec:	41 e0       	ldi	r20, 0x01	; 1
     7ee:	50 e0       	ldi	r21, 0x00	; 0
     7f0:	6f 2d       	mov	r22, r15
     7f2:	70 e0       	ldi	r23, 0x00	; 0
     7f4:	91 91       	ld	r25, Z+
     7f6:	9b 01       	movw	r18, r22
     7f8:	04 2e       	mov	r0, r20
     7fa:	02 c0       	rjmp	.+4      	; 0x800 <multiply+0x6c>
     7fc:	35 95       	asr	r19
     7fe:	27 95       	ror	r18
     800:	0a 94       	dec	r0
     802:	e2 f7       	brpl	.-8      	; 0x7fc <multiply+0x68>
     804:	21 70       	andi	r18, 0x01	; 1
     806:	29 9f       	mul	r18, r25
     808:	20 2d       	mov	r18, r0
     80a:	11 24       	eor	r1, r1
     80c:	82 27       	eor	r24, r18
     80e:	4f 5f       	subi	r20, 0xFF	; 255
     810:	5f 4f       	sbci	r21, 0xFF	; 255
     812:	48 30       	cpi	r20, 0x08	; 8
     814:	51 05       	cpc	r21, r1
     816:	71 f7       	brne	.-36     	; 0x7f4 <multiply+0x60>
     818:	28 96       	adiw	r28, 0x08	; 8
     81a:	cd bf       	out	0x3d, r28	; 61
     81c:	de bf       	out	0x3e, r29	; 62
     81e:	df 91       	pop	r29
     820:	cf 91       	pop	r28
     822:	1f 91       	pop	r17
     824:	0f 91       	pop	r16
     826:	ff 90       	pop	r15
     828:	ef 90       	pop	r14
     82a:	df 90       	pop	r13
     82c:	cf 90       	pop	r12
     82e:	08 95       	ret

00000830 <diffusionmodule>:
     830:	0f 93       	push	r16
     832:	1f 93       	push	r17
     834:	cf 93       	push	r28
     836:	df 93       	push	r29
     838:	ec 01       	movw	r28, r24
     83a:	ac 01       	movw	r20, r24
     83c:	41 5f       	subi	r20, 0xF1	; 241
     83e:	5f 4f       	sbci	r21, 0xFF	; 255
     840:	fc 01       	movw	r30, r24
     842:	df 01       	movw	r26, r30
     844:	31 96       	adiw	r30, 0x01	; 1
     846:	11 96       	adiw	r26, 0x01	; 1
     848:	3c 91       	ld	r19, X
     84a:	11 97       	sbiw	r26, 0x01	; 1
     84c:	2c 91       	ld	r18, X
     84e:	23 27       	eor	r18, r19
     850:	20 83       	st	Z, r18
     852:	e4 17       	cp	r30, r20
     854:	f5 07       	cpc	r31, r21
     856:	a9 f7       	brne	.-22     	; 0x842 <diffusionmodule+0x12>
     858:	8c 01       	movw	r16, r24
     85a:	0f 50       	subi	r16, 0x0F	; 15
     85c:	11 09       	sbc	r17, r1
     85e:	8f 85       	ldd	r24, Y+15	; 0x0f
     860:	88 23       	and	r24, r24
     862:	19 f0       	breq	.+6      	; 0x86a <diffusionmodule+0x3a>
     864:	6e 85       	ldd	r22, Y+14	; 0x0e
     866:	96 df       	rcall	.-212    	; 0x794 <multiply>
     868:	8e 87       	std	Y+14, r24	; 0x0e
     86a:	21 97       	sbiw	r28, 0x01	; 1
     86c:	0c 17       	cp	r16, r28
     86e:	1d 07       	cpc	r17, r29
     870:	b1 f7       	brne	.-20     	; 0x85e <diffusionmodule+0x2e>
     872:	df 91       	pop	r29
     874:	cf 91       	pop	r28
     876:	1f 91       	pop	r17
     878:	0f 91       	pop	r16
     87a:	08 95       	ret

0000087c <catmap>:
     87c:	2f 92       	push	r2
     87e:	3f 92       	push	r3
     880:	4f 92       	push	r4
     882:	5f 92       	push	r5
     884:	6f 92       	push	r6
     886:	7f 92       	push	r7
     888:	8f 92       	push	r8
     88a:	9f 92       	push	r9
     88c:	af 92       	push	r10
     88e:	bf 92       	push	r11
     890:	cf 92       	push	r12
     892:	df 92       	push	r13
     894:	ef 92       	push	r14
     896:	ff 92       	push	r15
     898:	0f 93       	push	r16
     89a:	1f 93       	push	r17
     89c:	cf 93       	push	r28
     89e:	df 93       	push	r29
     8a0:	cd b7       	in	r28, 0x3d	; 61
     8a2:	de b7       	in	r29, 0x3e	; 62
     8a4:	61 97       	sbiw	r28, 0x11	; 17
     8a6:	cd bf       	out	0x3d, r28	; 61
     8a8:	de bf       	out	0x3e, r29	; 62
     8aa:	dc 01       	movw	r26, r24
     8ac:	6e 01       	movw	r12, r28
     8ae:	81 e1       	ldi	r24, 0x11	; 17
     8b0:	c8 0e       	add	r12, r24
     8b2:	d1 1c       	adc	r13, r1
     8b4:	66 23       	and	r22, r22
     8b6:	09 f4       	brne	.+2      	; 0x8ba <catmap+0x3e>
     8b8:	81 c0       	rjmp	.+258    	; 0x9bc <catmap+0x140>
     8ba:	f8 89       	ldd	r31, Y+16	; 0x10
     8bc:	f9 8b       	std	Y+17, r31	; 0x11
     8be:	69 80       	ldd	r6, Y+1	; 0x01
     8c0:	7a 80       	ldd	r7, Y+2	; 0x02
     8c2:	8b 80       	ldd	r8, Y+3	; 0x03
     8c4:	9c 80       	ldd	r9, Y+4	; 0x04
     8c6:	ad 80       	ldd	r10, Y+5	; 0x05
     8c8:	be 80       	ldd	r11, Y+6	; 0x06
     8ca:	ef 80       	ldd	r14, Y+7	; 0x07
     8cc:	f8 84       	ldd	r15, Y+8	; 0x08
     8ce:	09 85       	ldd	r16, Y+9	; 0x09
     8d0:	1a 85       	ldd	r17, Y+10	; 0x0a
     8d2:	7b 85       	ldd	r23, Y+11	; 0x0b
     8d4:	5c 85       	ldd	r21, Y+12	; 0x0c
     8d6:	4d 85       	ldd	r20, Y+13	; 0x0d
     8d8:	3e 85       	ldd	r19, Y+14	; 0x0e
     8da:	2f 85       	ldd	r18, Y+15	; 0x0f
     8dc:	90 e0       	ldi	r25, 0x00	; 0
     8de:	29 2e       	mov	r2, r25
     8e0:	31 2c       	mov	r3, r1
     8e2:	f1 01       	movw	r30, r2
     8e4:	31 97       	sbiw	r30, 0x01	; 1
     8e6:	ef 30       	cpi	r30, 0x0F	; 15
     8e8:	f1 05       	cpc	r31, r1
     8ea:	30 f4       	brcc	.+12     	; 0x8f8 <catmap+0x7c>
     8ec:	88 27       	eor	r24, r24
     8ee:	ea 54       	subi	r30, 0x4A	; 74
     8f0:	ff 4f       	sbci	r31, 0xFF	; 255
     8f2:	8f 4f       	sbci	r24, 0xFF	; 255
     8f4:	0c 94 a6 0c 	jmp	0x194c	; 0x194c <__tablejump2__>
     8f8:	6c 90       	ld	r6, X
     8fa:	3c c0       	rjmp	.+120    	; 0x974 <catmap+0xf8>
     8fc:	1e 96       	adiw	r26, 0x0e	; 14
     8fe:	7c 90       	ld	r7, X
     900:	1e 97       	sbiw	r26, 0x0e	; 14
     902:	38 c0       	rjmp	.+112    	; 0x974 <catmap+0xf8>
     904:	18 96       	adiw	r26, 0x08	; 8
     906:	8c 90       	ld	r8, X
     908:	18 97       	sbiw	r26, 0x08	; 8
     90a:	34 c0       	rjmp	.+104    	; 0x974 <catmap+0xf8>
     90c:	16 96       	adiw	r26, 0x06	; 6
     90e:	9c 90       	ld	r9, X
     910:	16 97       	sbiw	r26, 0x06	; 6
     912:	30 c0       	rjmp	.+96     	; 0x974 <catmap+0xf8>
     914:	17 96       	adiw	r26, 0x07	; 7
     916:	ac 90       	ld	r10, X
     918:	17 97       	sbiw	r26, 0x07	; 7
     91a:	2c c0       	rjmp	.+88     	; 0x974 <catmap+0xf8>
     91c:	11 96       	adiw	r26, 0x01	; 1
     91e:	bc 90       	ld	r11, X
     920:	11 97       	sbiw	r26, 0x01	; 1
     922:	28 c0       	rjmp	.+80     	; 0x974 <catmap+0xf8>
     924:	1f 96       	adiw	r26, 0x0f	; 15
     926:	ec 90       	ld	r14, X
     928:	1f 97       	sbiw	r26, 0x0f	; 15
     92a:	24 c0       	rjmp	.+72     	; 0x974 <catmap+0xf8>
     92c:	19 96       	adiw	r26, 0x09	; 9
     92e:	fc 90       	ld	r15, X
     930:	19 97       	sbiw	r26, 0x09	; 9
     932:	20 c0       	rjmp	.+64     	; 0x974 <catmap+0xf8>
     934:	1a 96       	adiw	r26, 0x0a	; 10
     936:	0c 91       	ld	r16, X
     938:	1a 97       	sbiw	r26, 0x0a	; 10
     93a:	1c c0       	rjmp	.+56     	; 0x974 <catmap+0xf8>
     93c:	14 96       	adiw	r26, 0x04	; 4
     93e:	1c 91       	ld	r17, X
     940:	14 97       	sbiw	r26, 0x04	; 4
     942:	18 c0       	rjmp	.+48     	; 0x974 <catmap+0xf8>
     944:	12 96       	adiw	r26, 0x02	; 2
     946:	7c 91       	ld	r23, X
     948:	12 97       	sbiw	r26, 0x02	; 2
     94a:	14 c0       	rjmp	.+40     	; 0x974 <catmap+0xf8>
     94c:	1c 96       	adiw	r26, 0x0c	; 12
     94e:	5c 91       	ld	r21, X
     950:	1c 97       	sbiw	r26, 0x0c	; 12
     952:	10 c0       	rjmp	.+32     	; 0x974 <catmap+0xf8>
     954:	1d 96       	adiw	r26, 0x0d	; 13
     956:	4c 91       	ld	r20, X
     958:	1d 97       	sbiw	r26, 0x0d	; 13
     95a:	0c c0       	rjmp	.+24     	; 0x974 <catmap+0xf8>
     95c:	1b 96       	adiw	r26, 0x0b	; 11
     95e:	3c 91       	ld	r19, X
     960:	1b 97       	sbiw	r26, 0x0b	; 11
     962:	08 c0       	rjmp	.+16     	; 0x974 <catmap+0xf8>
     964:	15 96       	adiw	r26, 0x05	; 5
     966:	2c 91       	ld	r18, X
     968:	15 97       	sbiw	r26, 0x05	; 5
     96a:	04 c0       	rjmp	.+8      	; 0x974 <catmap+0xf8>
     96c:	13 96       	adiw	r26, 0x03	; 3
     96e:	ec 91       	ld	r30, X
     970:	13 97       	sbiw	r26, 0x03	; 3
     972:	e9 8b       	std	Y+17, r30	; 0x11
     974:	9f 5f       	subi	r25, 0xFF	; 255
     976:	90 31       	cpi	r25, 0x10	; 16
     978:	09 f0       	breq	.+2      	; 0x97c <catmap+0x100>
     97a:	b1 cf       	rjmp	.-158    	; 0x8de <catmap+0x62>
     97c:	69 82       	std	Y+1, r6	; 0x01
     97e:	7a 82       	std	Y+2, r7	; 0x02
     980:	8b 82       	std	Y+3, r8	; 0x03
     982:	9c 82       	std	Y+4, r9	; 0x04
     984:	ad 82       	std	Y+5, r10	; 0x05
     986:	be 82       	std	Y+6, r11	; 0x06
     988:	ef 82       	std	Y+7, r14	; 0x07
     98a:	f8 86       	std	Y+8, r15	; 0x08
     98c:	1a 87       	std	Y+10, r17	; 0x0a
     98e:	7b 87       	std	Y+11, r23	; 0x0b
     990:	5c 87       	std	Y+12, r21	; 0x0c
     992:	4d 87       	std	Y+13, r20	; 0x0d
     994:	3e 87       	std	Y+14, r19	; 0x0e
     996:	2f 87       	std	Y+15, r18	; 0x0f
     998:	f9 89       	ldd	r31, Y+17	; 0x11
     99a:	f8 8b       	std	Y+16, r31	; 0x10
     99c:	09 87       	std	Y+9, r16	; 0x09
     99e:	ae 01       	movw	r20, r28
     9a0:	4f 5f       	subi	r20, 0xFF	; 255
     9a2:	5f 4f       	sbci	r21, 0xFF	; 255
     9a4:	cd 01       	movw	r24, r26
     9a6:	fa 01       	movw	r30, r20
     9a8:	21 91       	ld	r18, Z+
     9aa:	af 01       	movw	r20, r30
     9ac:	fc 01       	movw	r30, r24
     9ae:	21 93       	st	Z+, r18
     9b0:	cf 01       	movw	r24, r30
     9b2:	4c 15       	cp	r20, r12
     9b4:	5d 05       	cpc	r21, r13
     9b6:	b9 f7       	brne	.-18     	; 0x9a6 <catmap+0x12a>
     9b8:	61 50       	subi	r22, 0x01	; 1
     9ba:	7c cf       	rjmp	.-264    	; 0x8b4 <catmap+0x38>
     9bc:	61 96       	adiw	r28, 0x11	; 17
     9be:	cd bf       	out	0x3d, r28	; 61
     9c0:	de bf       	out	0x3e, r29	; 62
     9c2:	df 91       	pop	r29
     9c4:	cf 91       	pop	r28
     9c6:	1f 91       	pop	r17
     9c8:	0f 91       	pop	r16
     9ca:	ff 90       	pop	r15
     9cc:	ef 90       	pop	r14
     9ce:	df 90       	pop	r13
     9d0:	cf 90       	pop	r12
     9d2:	bf 90       	pop	r11
     9d4:	af 90       	pop	r10
     9d6:	9f 90       	pop	r9
     9d8:	8f 90       	pop	r8
     9da:	7f 90       	pop	r7
     9dc:	6f 90       	pop	r6
     9de:	5f 90       	pop	r5
     9e0:	4f 90       	pop	r4
     9e2:	3f 90       	pop	r3
     9e4:	2f 90       	pop	r2
     9e6:	08 95       	ret

000009e8 <encryption>:
     9e8:	ef 92       	push	r14
     9ea:	ff 92       	push	r15
     9ec:	0f 93       	push	r16
     9ee:	1f 93       	push	r17
     9f0:	cf 93       	push	r28
     9f2:	df 93       	push	r29
     9f4:	7c 01       	movw	r14, r24
     9f6:	08 e7       	ldi	r16, 0x78	; 120
     9f8:	11 e2       	ldi	r17, 0x21	; 33
     9fa:	f8 01       	movw	r30, r16
     9fc:	db 01       	movw	r26, r22
     9fe:	8d 91       	ld	r24, X+
     a00:	bd 01       	movw	r22, r26
     a02:	81 93       	st	Z+, r24
     a04:	b1 e2       	ldi	r27, 0x21	; 33
     a06:	e8 38       	cpi	r30, 0x88	; 136
     a08:	fb 07       	cpc	r31, r27
     a0a:	c1 f7       	brne	.-16     	; 0x9fc <encryption+0x14>
     a0c:	81 e0       	ldi	r24, 0x01	; 1
     a0e:	80 93 05 06 	sts	0x0605, r24	; 0x800605 <__TEXT_REGION_LENGTH__+0x700605>
	...
     a42:	00 00       	nop
     a44:	c8 e4       	ldi	r28, 0x48	; 72
     a46:	d1 e2       	ldi	r29, 0x21	; 33
     a48:	be 01       	movw	r22, r28
     a4a:	88 e7       	ldi	r24, 0x78	; 120
     a4c:	91 e2       	ldi	r25, 0x21	; 33
     a4e:	7d de       	rcall	.-774    	; 0x74a <addroundkey>
     a50:	60 e1       	ldi	r22, 0x10	; 16
     a52:	70 e2       	ldi	r23, 0x20	; 32
     a54:	88 e7       	ldi	r24, 0x78	; 120
     a56:	91 e2       	ldi	r25, 0x21	; 33
     a58:	86 de       	rcall	.-756    	; 0x766 <getboxvalue>
     a5a:	88 e7       	ldi	r24, 0x78	; 120
     a5c:	91 e2       	ldi	r25, 0x21	; 33
     a5e:	e8 de       	rcall	.-560    	; 0x830 <diffusionmodule>
     a60:	21 e0       	ldi	r18, 0x01	; 1
     a62:	41 e0       	ldi	r20, 0x01	; 1
     a64:	61 e0       	ldi	r22, 0x01	; 1
     a66:	88 e7       	ldi	r24, 0x78	; 120
     a68:	91 e2       	ldi	r25, 0x21	; 33
     a6a:	08 df       	rcall	.-496    	; 0x87c <catmap>
     a6c:	60 96       	adiw	r28, 0x10	; 16
     a6e:	81 e2       	ldi	r24, 0x21	; 33
     a70:	c8 37       	cpi	r28, 0x78	; 120
     a72:	d8 07       	cpc	r29, r24
     a74:	49 f7       	brne	.-46     	; 0xa48 <encryption+0x60>
     a76:	81 e0       	ldi	r24, 0x01	; 1
     a78:	80 93 06 06 	sts	0x0606, r24	; 0x800606 <__TEXT_REGION_LENGTH__+0x700606>
     a7c:	f7 01       	movw	r30, r14
     a7e:	d8 01       	movw	r26, r16
     a80:	8d 91       	ld	r24, X+
     a82:	8d 01       	movw	r16, r26
     a84:	81 93       	st	Z+, r24
     a86:	b1 e2       	ldi	r27, 0x21	; 33
     a88:	08 38       	cpi	r16, 0x88	; 136
     a8a:	1b 07       	cpc	r17, r27
     a8c:	c1 f7       	brne	.-16     	; 0xa7e <encryption+0x96>
     a8e:	df 91       	pop	r29
     a90:	cf 91       	pop	r28
     a92:	1f 91       	pop	r17
     a94:	0f 91       	pop	r16
     a96:	ff 90       	pop	r15
     a98:	ef 90       	pop	r14
     a9a:	08 95       	ret

00000a9c <cpu_irq_save>:
     a9c:	cf 93       	push	r28
     a9e:	df 93       	push	r29
     aa0:	1f 92       	push	r1
     aa2:	cd b7       	in	r28, 0x3d	; 61
     aa4:	de b7       	in	r29, 0x3e	; 62
     aa6:	8f b7       	in	r24, 0x3f	; 63
     aa8:	89 83       	std	Y+1, r24	; 0x01
     aaa:	f8 94       	cli
     aac:	89 81       	ldd	r24, Y+1	; 0x01
     aae:	0f 90       	pop	r0
     ab0:	df 91       	pop	r29
     ab2:	cf 91       	pop	r28
     ab4:	08 95       	ret

00000ab6 <sysclk_init>:
     ab6:	8f ef       	ldi	r24, 0xFF	; 255
     ab8:	80 93 70 00 	sts	0x0070, r24	; 0x800070 <__TEXT_REGION_LENGTH__+0x700070>
     abc:	80 93 71 00 	sts	0x0071, r24	; 0x800071 <__TEXT_REGION_LENGTH__+0x700071>
     ac0:	80 93 72 00 	sts	0x0072, r24	; 0x800072 <__TEXT_REGION_LENGTH__+0x700072>
     ac4:	80 93 73 00 	sts	0x0073, r24	; 0x800073 <__TEXT_REGION_LENGTH__+0x700073>
     ac8:	80 93 74 00 	sts	0x0074, r24	; 0x800074 <__TEXT_REGION_LENGTH__+0x700074>
     acc:	80 93 75 00 	sts	0x0075, r24	; 0x800075 <__TEXT_REGION_LENGTH__+0x700075>
     ad0:	80 93 76 00 	sts	0x0076, r24	; 0x800076 <__TEXT_REGION_LENGTH__+0x700076>
     ad4:	10 92 52 00 	sts	0x0052, r1	; 0x800052 <__TEXT_REGION_LENGTH__+0x700052>
     ad8:	e1 df       	rcall	.-62     	; 0xa9c <cpu_irq_save>
     ada:	90 91 50 00 	lds	r25, 0x0050	; 0x800050 <__TEXT_REGION_LENGTH__+0x700050>
     ade:	98 60       	ori	r25, 0x08	; 8
     ae0:	90 93 50 00 	sts	0x0050, r25	; 0x800050 <__TEXT_REGION_LENGTH__+0x700050>
     ae4:	8f bf       	out	0x3f, r24	; 63
     ae6:	80 91 51 00 	lds	r24, 0x0051	; 0x800051 <__TEXT_REGION_LENGTH__+0x700051>
     aea:	83 ff       	sbrs	r24, 3
     aec:	fc cf       	rjmp	.-8      	; 0xae6 <sysclk_init+0x30>
     aee:	63 e0       	ldi	r22, 0x03	; 3
     af0:	80 e4       	ldi	r24, 0x40	; 64
     af2:	90 e0       	ldi	r25, 0x00	; 0
     af4:	3e d4       	rcall	.+2172   	; 0x1372 <ccp_write_io>
     af6:	d2 df       	rcall	.-92     	; 0xa9c <cpu_irq_save>
     af8:	90 91 50 00 	lds	r25, 0x0050	; 0x800050 <__TEXT_REGION_LENGTH__+0x700050>
     afc:	9e 7f       	andi	r25, 0xFE	; 254
     afe:	90 93 50 00 	sts	0x0050, r25	; 0x800050 <__TEXT_REGION_LENGTH__+0x700050>
     b02:	8f bf       	out	0x3f, r24	; 63
     b04:	08 95       	ret

00000b06 <sysclk_enable_module>:
     b06:	cf 93       	push	r28
     b08:	df 93       	push	r29
     b0a:	c8 2f       	mov	r28, r24
     b0c:	d6 2f       	mov	r29, r22
     b0e:	c6 df       	rcall	.-116    	; 0xa9c <cpu_irq_save>
     b10:	ec 2f       	mov	r30, r28
     b12:	f0 e0       	ldi	r31, 0x00	; 0
     b14:	e0 59       	subi	r30, 0x90	; 144
     b16:	ff 4f       	sbci	r31, 0xFF	; 255
     b18:	d0 95       	com	r29
     b1a:	90 81       	ld	r25, Z
     b1c:	d9 23       	and	r29, r25
     b1e:	d0 83       	st	Z, r29
     b20:	8f bf       	out	0x3f, r24	; 63
     b22:	df 91       	pop	r29
     b24:	cf 91       	pop	r28
     b26:	08 95       	ret

00000b28 <cpu_irq_save>:
     b28:	cf 93       	push	r28
     b2a:	df 93       	push	r29
     b2c:	1f 92       	push	r1
     b2e:	cd b7       	in	r28, 0x3d	; 61
     b30:	de b7       	in	r29, 0x3e	; 62
     b32:	8f b7       	in	r24, 0x3f	; 63
     b34:	89 83       	std	Y+1, r24	; 0x01
     b36:	f8 94       	cli
     b38:	89 81       	ldd	r24, Y+1	; 0x01
     b3a:	0f 90       	pop	r0
     b3c:	df 91       	pop	r29
     b3e:	cf 91       	pop	r28
     b40:	08 95       	ret

00000b42 <__vector_14>:
     b42:	1f 92       	push	r1
     b44:	0f 92       	push	r0
     b46:	0f b6       	in	r0, 0x3f	; 63
     b48:	0f 92       	push	r0
     b4a:	11 24       	eor	r1, r1
     b4c:	0b b6       	in	r0, 0x3b	; 59
     b4e:	0f 92       	push	r0
     b50:	2f 93       	push	r18
     b52:	3f 93       	push	r19
     b54:	4f 93       	push	r20
     b56:	5f 93       	push	r21
     b58:	6f 93       	push	r22
     b5a:	7f 93       	push	r23
     b5c:	8f 93       	push	r24
     b5e:	9f 93       	push	r25
     b60:	af 93       	push	r26
     b62:	bf 93       	push	r27
     b64:	ef 93       	push	r30
     b66:	ff 93       	push	r31
     b68:	e0 91 46 21 	lds	r30, 0x2146	; 0x802146 <tc_tcc0_ovf_callback>
     b6c:	f0 91 47 21 	lds	r31, 0x2147	; 0x802147 <tc_tcc0_ovf_callback+0x1>
     b70:	30 97       	sbiw	r30, 0x00	; 0
     b72:	09 f0       	breq	.+2      	; 0xb76 <__vector_14+0x34>
     b74:	19 95       	eicall
     b76:	ff 91       	pop	r31
     b78:	ef 91       	pop	r30
     b7a:	bf 91       	pop	r27
     b7c:	af 91       	pop	r26
     b7e:	9f 91       	pop	r25
     b80:	8f 91       	pop	r24
     b82:	7f 91       	pop	r23
     b84:	6f 91       	pop	r22
     b86:	5f 91       	pop	r21
     b88:	4f 91       	pop	r20
     b8a:	3f 91       	pop	r19
     b8c:	2f 91       	pop	r18
     b8e:	0f 90       	pop	r0
     b90:	0b be       	out	0x3b, r0	; 59
     b92:	0f 90       	pop	r0
     b94:	0f be       	out	0x3f, r0	; 63
     b96:	0f 90       	pop	r0
     b98:	1f 90       	pop	r1
     b9a:	18 95       	reti

00000b9c <__vector_15>:
     b9c:	1f 92       	push	r1
     b9e:	0f 92       	push	r0
     ba0:	0f b6       	in	r0, 0x3f	; 63
     ba2:	0f 92       	push	r0
     ba4:	11 24       	eor	r1, r1
     ba6:	0b b6       	in	r0, 0x3b	; 59
     ba8:	0f 92       	push	r0
     baa:	2f 93       	push	r18
     bac:	3f 93       	push	r19
     bae:	4f 93       	push	r20
     bb0:	5f 93       	push	r21
     bb2:	6f 93       	push	r22
     bb4:	7f 93       	push	r23
     bb6:	8f 93       	push	r24
     bb8:	9f 93       	push	r25
     bba:	af 93       	push	r26
     bbc:	bf 93       	push	r27
     bbe:	ef 93       	push	r30
     bc0:	ff 93       	push	r31
     bc2:	e0 91 44 21 	lds	r30, 0x2144	; 0x802144 <tc_tcc0_err_callback>
     bc6:	f0 91 45 21 	lds	r31, 0x2145	; 0x802145 <tc_tcc0_err_callback+0x1>
     bca:	30 97       	sbiw	r30, 0x00	; 0
     bcc:	09 f0       	breq	.+2      	; 0xbd0 <__vector_15+0x34>
     bce:	19 95       	eicall
     bd0:	ff 91       	pop	r31
     bd2:	ef 91       	pop	r30
     bd4:	bf 91       	pop	r27
     bd6:	af 91       	pop	r26
     bd8:	9f 91       	pop	r25
     bda:	8f 91       	pop	r24
     bdc:	7f 91       	pop	r23
     bde:	6f 91       	pop	r22
     be0:	5f 91       	pop	r21
     be2:	4f 91       	pop	r20
     be4:	3f 91       	pop	r19
     be6:	2f 91       	pop	r18
     be8:	0f 90       	pop	r0
     bea:	0b be       	out	0x3b, r0	; 59
     bec:	0f 90       	pop	r0
     bee:	0f be       	out	0x3f, r0	; 63
     bf0:	0f 90       	pop	r0
     bf2:	1f 90       	pop	r1
     bf4:	18 95       	reti

00000bf6 <__vector_16>:
     bf6:	1f 92       	push	r1
     bf8:	0f 92       	push	r0
     bfa:	0f b6       	in	r0, 0x3f	; 63
     bfc:	0f 92       	push	r0
     bfe:	11 24       	eor	r1, r1
     c00:	0b b6       	in	r0, 0x3b	; 59
     c02:	0f 92       	push	r0
     c04:	2f 93       	push	r18
     c06:	3f 93       	push	r19
     c08:	4f 93       	push	r20
     c0a:	5f 93       	push	r21
     c0c:	6f 93       	push	r22
     c0e:	7f 93       	push	r23
     c10:	8f 93       	push	r24
     c12:	9f 93       	push	r25
     c14:	af 93       	push	r26
     c16:	bf 93       	push	r27
     c18:	ef 93       	push	r30
     c1a:	ff 93       	push	r31
     c1c:	e0 91 42 21 	lds	r30, 0x2142	; 0x802142 <tc_tcc0_cca_callback>
     c20:	f0 91 43 21 	lds	r31, 0x2143	; 0x802143 <tc_tcc0_cca_callback+0x1>
     c24:	30 97       	sbiw	r30, 0x00	; 0
     c26:	09 f0       	breq	.+2      	; 0xc2a <__vector_16+0x34>
     c28:	19 95       	eicall
     c2a:	ff 91       	pop	r31
     c2c:	ef 91       	pop	r30
     c2e:	bf 91       	pop	r27
     c30:	af 91       	pop	r26
     c32:	9f 91       	pop	r25
     c34:	8f 91       	pop	r24
     c36:	7f 91       	pop	r23
     c38:	6f 91       	pop	r22
     c3a:	5f 91       	pop	r21
     c3c:	4f 91       	pop	r20
     c3e:	3f 91       	pop	r19
     c40:	2f 91       	pop	r18
     c42:	0f 90       	pop	r0
     c44:	0b be       	out	0x3b, r0	; 59
     c46:	0f 90       	pop	r0
     c48:	0f be       	out	0x3f, r0	; 63
     c4a:	0f 90       	pop	r0
     c4c:	1f 90       	pop	r1
     c4e:	18 95       	reti

00000c50 <__vector_17>:
     c50:	1f 92       	push	r1
     c52:	0f 92       	push	r0
     c54:	0f b6       	in	r0, 0x3f	; 63
     c56:	0f 92       	push	r0
     c58:	11 24       	eor	r1, r1
     c5a:	0b b6       	in	r0, 0x3b	; 59
     c5c:	0f 92       	push	r0
     c5e:	2f 93       	push	r18
     c60:	3f 93       	push	r19
     c62:	4f 93       	push	r20
     c64:	5f 93       	push	r21
     c66:	6f 93       	push	r22
     c68:	7f 93       	push	r23
     c6a:	8f 93       	push	r24
     c6c:	9f 93       	push	r25
     c6e:	af 93       	push	r26
     c70:	bf 93       	push	r27
     c72:	ef 93       	push	r30
     c74:	ff 93       	push	r31
     c76:	e0 91 40 21 	lds	r30, 0x2140	; 0x802140 <tc_tcc0_ccb_callback>
     c7a:	f0 91 41 21 	lds	r31, 0x2141	; 0x802141 <tc_tcc0_ccb_callback+0x1>
     c7e:	30 97       	sbiw	r30, 0x00	; 0
     c80:	09 f0       	breq	.+2      	; 0xc84 <__vector_17+0x34>
     c82:	19 95       	eicall
     c84:	ff 91       	pop	r31
     c86:	ef 91       	pop	r30
     c88:	bf 91       	pop	r27
     c8a:	af 91       	pop	r26
     c8c:	9f 91       	pop	r25
     c8e:	8f 91       	pop	r24
     c90:	7f 91       	pop	r23
     c92:	6f 91       	pop	r22
     c94:	5f 91       	pop	r21
     c96:	4f 91       	pop	r20
     c98:	3f 91       	pop	r19
     c9a:	2f 91       	pop	r18
     c9c:	0f 90       	pop	r0
     c9e:	0b be       	out	0x3b, r0	; 59
     ca0:	0f 90       	pop	r0
     ca2:	0f be       	out	0x3f, r0	; 63
     ca4:	0f 90       	pop	r0
     ca6:	1f 90       	pop	r1
     ca8:	18 95       	reti

00000caa <__vector_18>:
     caa:	1f 92       	push	r1
     cac:	0f 92       	push	r0
     cae:	0f b6       	in	r0, 0x3f	; 63
     cb0:	0f 92       	push	r0
     cb2:	11 24       	eor	r1, r1
     cb4:	0b b6       	in	r0, 0x3b	; 59
     cb6:	0f 92       	push	r0
     cb8:	2f 93       	push	r18
     cba:	3f 93       	push	r19
     cbc:	4f 93       	push	r20
     cbe:	5f 93       	push	r21
     cc0:	6f 93       	push	r22
     cc2:	7f 93       	push	r23
     cc4:	8f 93       	push	r24
     cc6:	9f 93       	push	r25
     cc8:	af 93       	push	r26
     cca:	bf 93       	push	r27
     ccc:	ef 93       	push	r30
     cce:	ff 93       	push	r31
     cd0:	e0 91 3e 21 	lds	r30, 0x213E	; 0x80213e <tc_tcc0_ccc_callback>
     cd4:	f0 91 3f 21 	lds	r31, 0x213F	; 0x80213f <tc_tcc0_ccc_callback+0x1>
     cd8:	30 97       	sbiw	r30, 0x00	; 0
     cda:	09 f0       	breq	.+2      	; 0xcde <__vector_18+0x34>
     cdc:	19 95       	eicall
     cde:	ff 91       	pop	r31
     ce0:	ef 91       	pop	r30
     ce2:	bf 91       	pop	r27
     ce4:	af 91       	pop	r26
     ce6:	9f 91       	pop	r25
     ce8:	8f 91       	pop	r24
     cea:	7f 91       	pop	r23
     cec:	6f 91       	pop	r22
     cee:	5f 91       	pop	r21
     cf0:	4f 91       	pop	r20
     cf2:	3f 91       	pop	r19
     cf4:	2f 91       	pop	r18
     cf6:	0f 90       	pop	r0
     cf8:	0b be       	out	0x3b, r0	; 59
     cfa:	0f 90       	pop	r0
     cfc:	0f be       	out	0x3f, r0	; 63
     cfe:	0f 90       	pop	r0
     d00:	1f 90       	pop	r1
     d02:	18 95       	reti

00000d04 <__vector_19>:
     d04:	1f 92       	push	r1
     d06:	0f 92       	push	r0
     d08:	0f b6       	in	r0, 0x3f	; 63
     d0a:	0f 92       	push	r0
     d0c:	11 24       	eor	r1, r1
     d0e:	0b b6       	in	r0, 0x3b	; 59
     d10:	0f 92       	push	r0
     d12:	2f 93       	push	r18
     d14:	3f 93       	push	r19
     d16:	4f 93       	push	r20
     d18:	5f 93       	push	r21
     d1a:	6f 93       	push	r22
     d1c:	7f 93       	push	r23
     d1e:	8f 93       	push	r24
     d20:	9f 93       	push	r25
     d22:	af 93       	push	r26
     d24:	bf 93       	push	r27
     d26:	ef 93       	push	r30
     d28:	ff 93       	push	r31
     d2a:	e0 91 3c 21 	lds	r30, 0x213C	; 0x80213c <tc_tcc0_ccd_callback>
     d2e:	f0 91 3d 21 	lds	r31, 0x213D	; 0x80213d <tc_tcc0_ccd_callback+0x1>
     d32:	30 97       	sbiw	r30, 0x00	; 0
     d34:	09 f0       	breq	.+2      	; 0xd38 <__vector_19+0x34>
     d36:	19 95       	eicall
     d38:	ff 91       	pop	r31
     d3a:	ef 91       	pop	r30
     d3c:	bf 91       	pop	r27
     d3e:	af 91       	pop	r26
     d40:	9f 91       	pop	r25
     d42:	8f 91       	pop	r24
     d44:	7f 91       	pop	r23
     d46:	6f 91       	pop	r22
     d48:	5f 91       	pop	r21
     d4a:	4f 91       	pop	r20
     d4c:	3f 91       	pop	r19
     d4e:	2f 91       	pop	r18
     d50:	0f 90       	pop	r0
     d52:	0b be       	out	0x3b, r0	; 59
     d54:	0f 90       	pop	r0
     d56:	0f be       	out	0x3f, r0	; 63
     d58:	0f 90       	pop	r0
     d5a:	1f 90       	pop	r1
     d5c:	18 95       	reti

00000d5e <__vector_20>:
     d5e:	1f 92       	push	r1
     d60:	0f 92       	push	r0
     d62:	0f b6       	in	r0, 0x3f	; 63
     d64:	0f 92       	push	r0
     d66:	11 24       	eor	r1, r1
     d68:	0b b6       	in	r0, 0x3b	; 59
     d6a:	0f 92       	push	r0
     d6c:	2f 93       	push	r18
     d6e:	3f 93       	push	r19
     d70:	4f 93       	push	r20
     d72:	5f 93       	push	r21
     d74:	6f 93       	push	r22
     d76:	7f 93       	push	r23
     d78:	8f 93       	push	r24
     d7a:	9f 93       	push	r25
     d7c:	af 93       	push	r26
     d7e:	bf 93       	push	r27
     d80:	ef 93       	push	r30
     d82:	ff 93       	push	r31
     d84:	e0 91 3a 21 	lds	r30, 0x213A	; 0x80213a <tc_tcc1_ovf_callback>
     d88:	f0 91 3b 21 	lds	r31, 0x213B	; 0x80213b <tc_tcc1_ovf_callback+0x1>
     d8c:	30 97       	sbiw	r30, 0x00	; 0
     d8e:	09 f0       	breq	.+2      	; 0xd92 <__vector_20+0x34>
     d90:	19 95       	eicall
     d92:	ff 91       	pop	r31
     d94:	ef 91       	pop	r30
     d96:	bf 91       	pop	r27
     d98:	af 91       	pop	r26
     d9a:	9f 91       	pop	r25
     d9c:	8f 91       	pop	r24
     d9e:	7f 91       	pop	r23
     da0:	6f 91       	pop	r22
     da2:	5f 91       	pop	r21
     da4:	4f 91       	pop	r20
     da6:	3f 91       	pop	r19
     da8:	2f 91       	pop	r18
     daa:	0f 90       	pop	r0
     dac:	0b be       	out	0x3b, r0	; 59
     dae:	0f 90       	pop	r0
     db0:	0f be       	out	0x3f, r0	; 63
     db2:	0f 90       	pop	r0
     db4:	1f 90       	pop	r1
     db6:	18 95       	reti

00000db8 <__vector_21>:
     db8:	1f 92       	push	r1
     dba:	0f 92       	push	r0
     dbc:	0f b6       	in	r0, 0x3f	; 63
     dbe:	0f 92       	push	r0
     dc0:	11 24       	eor	r1, r1
     dc2:	0b b6       	in	r0, 0x3b	; 59
     dc4:	0f 92       	push	r0
     dc6:	2f 93       	push	r18
     dc8:	3f 93       	push	r19
     dca:	4f 93       	push	r20
     dcc:	5f 93       	push	r21
     dce:	6f 93       	push	r22
     dd0:	7f 93       	push	r23
     dd2:	8f 93       	push	r24
     dd4:	9f 93       	push	r25
     dd6:	af 93       	push	r26
     dd8:	bf 93       	push	r27
     dda:	ef 93       	push	r30
     ddc:	ff 93       	push	r31
     dde:	e0 91 38 21 	lds	r30, 0x2138	; 0x802138 <tc_tcc1_err_callback>
     de2:	f0 91 39 21 	lds	r31, 0x2139	; 0x802139 <tc_tcc1_err_callback+0x1>
     de6:	30 97       	sbiw	r30, 0x00	; 0
     de8:	09 f0       	breq	.+2      	; 0xdec <__vector_21+0x34>
     dea:	19 95       	eicall
     dec:	ff 91       	pop	r31
     dee:	ef 91       	pop	r30
     df0:	bf 91       	pop	r27
     df2:	af 91       	pop	r26
     df4:	9f 91       	pop	r25
     df6:	8f 91       	pop	r24
     df8:	7f 91       	pop	r23
     dfa:	6f 91       	pop	r22
     dfc:	5f 91       	pop	r21
     dfe:	4f 91       	pop	r20
     e00:	3f 91       	pop	r19
     e02:	2f 91       	pop	r18
     e04:	0f 90       	pop	r0
     e06:	0b be       	out	0x3b, r0	; 59
     e08:	0f 90       	pop	r0
     e0a:	0f be       	out	0x3f, r0	; 63
     e0c:	0f 90       	pop	r0
     e0e:	1f 90       	pop	r1
     e10:	18 95       	reti

00000e12 <__vector_22>:
     e12:	1f 92       	push	r1
     e14:	0f 92       	push	r0
     e16:	0f b6       	in	r0, 0x3f	; 63
     e18:	0f 92       	push	r0
     e1a:	11 24       	eor	r1, r1
     e1c:	0b b6       	in	r0, 0x3b	; 59
     e1e:	0f 92       	push	r0
     e20:	2f 93       	push	r18
     e22:	3f 93       	push	r19
     e24:	4f 93       	push	r20
     e26:	5f 93       	push	r21
     e28:	6f 93       	push	r22
     e2a:	7f 93       	push	r23
     e2c:	8f 93       	push	r24
     e2e:	9f 93       	push	r25
     e30:	af 93       	push	r26
     e32:	bf 93       	push	r27
     e34:	ef 93       	push	r30
     e36:	ff 93       	push	r31
     e38:	e0 91 36 21 	lds	r30, 0x2136	; 0x802136 <tc_tcc1_cca_callback>
     e3c:	f0 91 37 21 	lds	r31, 0x2137	; 0x802137 <tc_tcc1_cca_callback+0x1>
     e40:	30 97       	sbiw	r30, 0x00	; 0
     e42:	09 f0       	breq	.+2      	; 0xe46 <__vector_22+0x34>
     e44:	19 95       	eicall
     e46:	ff 91       	pop	r31
     e48:	ef 91       	pop	r30
     e4a:	bf 91       	pop	r27
     e4c:	af 91       	pop	r26
     e4e:	9f 91       	pop	r25
     e50:	8f 91       	pop	r24
     e52:	7f 91       	pop	r23
     e54:	6f 91       	pop	r22
     e56:	5f 91       	pop	r21
     e58:	4f 91       	pop	r20
     e5a:	3f 91       	pop	r19
     e5c:	2f 91       	pop	r18
     e5e:	0f 90       	pop	r0
     e60:	0b be       	out	0x3b, r0	; 59
     e62:	0f 90       	pop	r0
     e64:	0f be       	out	0x3f, r0	; 63
     e66:	0f 90       	pop	r0
     e68:	1f 90       	pop	r1
     e6a:	18 95       	reti

00000e6c <__vector_23>:
     e6c:	1f 92       	push	r1
     e6e:	0f 92       	push	r0
     e70:	0f b6       	in	r0, 0x3f	; 63
     e72:	0f 92       	push	r0
     e74:	11 24       	eor	r1, r1
     e76:	0b b6       	in	r0, 0x3b	; 59
     e78:	0f 92       	push	r0
     e7a:	2f 93       	push	r18
     e7c:	3f 93       	push	r19
     e7e:	4f 93       	push	r20
     e80:	5f 93       	push	r21
     e82:	6f 93       	push	r22
     e84:	7f 93       	push	r23
     e86:	8f 93       	push	r24
     e88:	9f 93       	push	r25
     e8a:	af 93       	push	r26
     e8c:	bf 93       	push	r27
     e8e:	ef 93       	push	r30
     e90:	ff 93       	push	r31
     e92:	e0 91 34 21 	lds	r30, 0x2134	; 0x802134 <tc_tcc1_ccb_callback>
     e96:	f0 91 35 21 	lds	r31, 0x2135	; 0x802135 <tc_tcc1_ccb_callback+0x1>
     e9a:	30 97       	sbiw	r30, 0x00	; 0
     e9c:	09 f0       	breq	.+2      	; 0xea0 <__vector_23+0x34>
     e9e:	19 95       	eicall
     ea0:	ff 91       	pop	r31
     ea2:	ef 91       	pop	r30
     ea4:	bf 91       	pop	r27
     ea6:	af 91       	pop	r26
     ea8:	9f 91       	pop	r25
     eaa:	8f 91       	pop	r24
     eac:	7f 91       	pop	r23
     eae:	6f 91       	pop	r22
     eb0:	5f 91       	pop	r21
     eb2:	4f 91       	pop	r20
     eb4:	3f 91       	pop	r19
     eb6:	2f 91       	pop	r18
     eb8:	0f 90       	pop	r0
     eba:	0b be       	out	0x3b, r0	; 59
     ebc:	0f 90       	pop	r0
     ebe:	0f be       	out	0x3f, r0	; 63
     ec0:	0f 90       	pop	r0
     ec2:	1f 90       	pop	r1
     ec4:	18 95       	reti

00000ec6 <__vector_77>:
     ec6:	1f 92       	push	r1
     ec8:	0f 92       	push	r0
     eca:	0f b6       	in	r0, 0x3f	; 63
     ecc:	0f 92       	push	r0
     ece:	11 24       	eor	r1, r1
     ed0:	0b b6       	in	r0, 0x3b	; 59
     ed2:	0f 92       	push	r0
     ed4:	2f 93       	push	r18
     ed6:	3f 93       	push	r19
     ed8:	4f 93       	push	r20
     eda:	5f 93       	push	r21
     edc:	6f 93       	push	r22
     ede:	7f 93       	push	r23
     ee0:	8f 93       	push	r24
     ee2:	9f 93       	push	r25
     ee4:	af 93       	push	r26
     ee6:	bf 93       	push	r27
     ee8:	ef 93       	push	r30
     eea:	ff 93       	push	r31
     eec:	e0 91 32 21 	lds	r30, 0x2132	; 0x802132 <tc_tcd0_ovf_callback>
     ef0:	f0 91 33 21 	lds	r31, 0x2133	; 0x802133 <tc_tcd0_ovf_callback+0x1>
     ef4:	30 97       	sbiw	r30, 0x00	; 0
     ef6:	09 f0       	breq	.+2      	; 0xefa <__vector_77+0x34>
     ef8:	19 95       	eicall
     efa:	ff 91       	pop	r31
     efc:	ef 91       	pop	r30
     efe:	bf 91       	pop	r27
     f00:	af 91       	pop	r26
     f02:	9f 91       	pop	r25
     f04:	8f 91       	pop	r24
     f06:	7f 91       	pop	r23
     f08:	6f 91       	pop	r22
     f0a:	5f 91       	pop	r21
     f0c:	4f 91       	pop	r20
     f0e:	3f 91       	pop	r19
     f10:	2f 91       	pop	r18
     f12:	0f 90       	pop	r0
     f14:	0b be       	out	0x3b, r0	; 59
     f16:	0f 90       	pop	r0
     f18:	0f be       	out	0x3f, r0	; 63
     f1a:	0f 90       	pop	r0
     f1c:	1f 90       	pop	r1
     f1e:	18 95       	reti

00000f20 <__vector_78>:
     f20:	1f 92       	push	r1
     f22:	0f 92       	push	r0
     f24:	0f b6       	in	r0, 0x3f	; 63
     f26:	0f 92       	push	r0
     f28:	11 24       	eor	r1, r1
     f2a:	0b b6       	in	r0, 0x3b	; 59
     f2c:	0f 92       	push	r0
     f2e:	2f 93       	push	r18
     f30:	3f 93       	push	r19
     f32:	4f 93       	push	r20
     f34:	5f 93       	push	r21
     f36:	6f 93       	push	r22
     f38:	7f 93       	push	r23
     f3a:	8f 93       	push	r24
     f3c:	9f 93       	push	r25
     f3e:	af 93       	push	r26
     f40:	bf 93       	push	r27
     f42:	ef 93       	push	r30
     f44:	ff 93       	push	r31
     f46:	e0 91 30 21 	lds	r30, 0x2130	; 0x802130 <tc_tcd0_err_callback>
     f4a:	f0 91 31 21 	lds	r31, 0x2131	; 0x802131 <tc_tcd0_err_callback+0x1>
     f4e:	30 97       	sbiw	r30, 0x00	; 0
     f50:	09 f0       	breq	.+2      	; 0xf54 <__vector_78+0x34>
     f52:	19 95       	eicall
     f54:	ff 91       	pop	r31
     f56:	ef 91       	pop	r30
     f58:	bf 91       	pop	r27
     f5a:	af 91       	pop	r26
     f5c:	9f 91       	pop	r25
     f5e:	8f 91       	pop	r24
     f60:	7f 91       	pop	r23
     f62:	6f 91       	pop	r22
     f64:	5f 91       	pop	r21
     f66:	4f 91       	pop	r20
     f68:	3f 91       	pop	r19
     f6a:	2f 91       	pop	r18
     f6c:	0f 90       	pop	r0
     f6e:	0b be       	out	0x3b, r0	; 59
     f70:	0f 90       	pop	r0
     f72:	0f be       	out	0x3f, r0	; 63
     f74:	0f 90       	pop	r0
     f76:	1f 90       	pop	r1
     f78:	18 95       	reti

00000f7a <__vector_79>:
     f7a:	1f 92       	push	r1
     f7c:	0f 92       	push	r0
     f7e:	0f b6       	in	r0, 0x3f	; 63
     f80:	0f 92       	push	r0
     f82:	11 24       	eor	r1, r1
     f84:	0b b6       	in	r0, 0x3b	; 59
     f86:	0f 92       	push	r0
     f88:	2f 93       	push	r18
     f8a:	3f 93       	push	r19
     f8c:	4f 93       	push	r20
     f8e:	5f 93       	push	r21
     f90:	6f 93       	push	r22
     f92:	7f 93       	push	r23
     f94:	8f 93       	push	r24
     f96:	9f 93       	push	r25
     f98:	af 93       	push	r26
     f9a:	bf 93       	push	r27
     f9c:	ef 93       	push	r30
     f9e:	ff 93       	push	r31
     fa0:	e0 91 2e 21 	lds	r30, 0x212E	; 0x80212e <tc_tcd0_cca_callback>
     fa4:	f0 91 2f 21 	lds	r31, 0x212F	; 0x80212f <tc_tcd0_cca_callback+0x1>
     fa8:	30 97       	sbiw	r30, 0x00	; 0
     faa:	09 f0       	breq	.+2      	; 0xfae <__vector_79+0x34>
     fac:	19 95       	eicall
     fae:	ff 91       	pop	r31
     fb0:	ef 91       	pop	r30
     fb2:	bf 91       	pop	r27
     fb4:	af 91       	pop	r26
     fb6:	9f 91       	pop	r25
     fb8:	8f 91       	pop	r24
     fba:	7f 91       	pop	r23
     fbc:	6f 91       	pop	r22
     fbe:	5f 91       	pop	r21
     fc0:	4f 91       	pop	r20
     fc2:	3f 91       	pop	r19
     fc4:	2f 91       	pop	r18
     fc6:	0f 90       	pop	r0
     fc8:	0b be       	out	0x3b, r0	; 59
     fca:	0f 90       	pop	r0
     fcc:	0f be       	out	0x3f, r0	; 63
     fce:	0f 90       	pop	r0
     fd0:	1f 90       	pop	r1
     fd2:	18 95       	reti

00000fd4 <__vector_80>:
     fd4:	1f 92       	push	r1
     fd6:	0f 92       	push	r0
     fd8:	0f b6       	in	r0, 0x3f	; 63
     fda:	0f 92       	push	r0
     fdc:	11 24       	eor	r1, r1
     fde:	0b b6       	in	r0, 0x3b	; 59
     fe0:	0f 92       	push	r0
     fe2:	2f 93       	push	r18
     fe4:	3f 93       	push	r19
     fe6:	4f 93       	push	r20
     fe8:	5f 93       	push	r21
     fea:	6f 93       	push	r22
     fec:	7f 93       	push	r23
     fee:	8f 93       	push	r24
     ff0:	9f 93       	push	r25
     ff2:	af 93       	push	r26
     ff4:	bf 93       	push	r27
     ff6:	ef 93       	push	r30
     ff8:	ff 93       	push	r31
     ffa:	e0 91 2c 21 	lds	r30, 0x212C	; 0x80212c <tc_tcd0_ccb_callback>
     ffe:	f0 91 2d 21 	lds	r31, 0x212D	; 0x80212d <tc_tcd0_ccb_callback+0x1>
    1002:	30 97       	sbiw	r30, 0x00	; 0
    1004:	09 f0       	breq	.+2      	; 0x1008 <__vector_80+0x34>
    1006:	19 95       	eicall
    1008:	ff 91       	pop	r31
    100a:	ef 91       	pop	r30
    100c:	bf 91       	pop	r27
    100e:	af 91       	pop	r26
    1010:	9f 91       	pop	r25
    1012:	8f 91       	pop	r24
    1014:	7f 91       	pop	r23
    1016:	6f 91       	pop	r22
    1018:	5f 91       	pop	r21
    101a:	4f 91       	pop	r20
    101c:	3f 91       	pop	r19
    101e:	2f 91       	pop	r18
    1020:	0f 90       	pop	r0
    1022:	0b be       	out	0x3b, r0	; 59
    1024:	0f 90       	pop	r0
    1026:	0f be       	out	0x3f, r0	; 63
    1028:	0f 90       	pop	r0
    102a:	1f 90       	pop	r1
    102c:	18 95       	reti

0000102e <__vector_81>:
    102e:	1f 92       	push	r1
    1030:	0f 92       	push	r0
    1032:	0f b6       	in	r0, 0x3f	; 63
    1034:	0f 92       	push	r0
    1036:	11 24       	eor	r1, r1
    1038:	0b b6       	in	r0, 0x3b	; 59
    103a:	0f 92       	push	r0
    103c:	2f 93       	push	r18
    103e:	3f 93       	push	r19
    1040:	4f 93       	push	r20
    1042:	5f 93       	push	r21
    1044:	6f 93       	push	r22
    1046:	7f 93       	push	r23
    1048:	8f 93       	push	r24
    104a:	9f 93       	push	r25
    104c:	af 93       	push	r26
    104e:	bf 93       	push	r27
    1050:	ef 93       	push	r30
    1052:	ff 93       	push	r31
    1054:	e0 91 2a 21 	lds	r30, 0x212A	; 0x80212a <tc_tcd0_ccc_callback>
    1058:	f0 91 2b 21 	lds	r31, 0x212B	; 0x80212b <tc_tcd0_ccc_callback+0x1>
    105c:	30 97       	sbiw	r30, 0x00	; 0
    105e:	09 f0       	breq	.+2      	; 0x1062 <__vector_81+0x34>
    1060:	19 95       	eicall
    1062:	ff 91       	pop	r31
    1064:	ef 91       	pop	r30
    1066:	bf 91       	pop	r27
    1068:	af 91       	pop	r26
    106a:	9f 91       	pop	r25
    106c:	8f 91       	pop	r24
    106e:	7f 91       	pop	r23
    1070:	6f 91       	pop	r22
    1072:	5f 91       	pop	r21
    1074:	4f 91       	pop	r20
    1076:	3f 91       	pop	r19
    1078:	2f 91       	pop	r18
    107a:	0f 90       	pop	r0
    107c:	0b be       	out	0x3b, r0	; 59
    107e:	0f 90       	pop	r0
    1080:	0f be       	out	0x3f, r0	; 63
    1082:	0f 90       	pop	r0
    1084:	1f 90       	pop	r1
    1086:	18 95       	reti

00001088 <__vector_82>:
    1088:	1f 92       	push	r1
    108a:	0f 92       	push	r0
    108c:	0f b6       	in	r0, 0x3f	; 63
    108e:	0f 92       	push	r0
    1090:	11 24       	eor	r1, r1
    1092:	0b b6       	in	r0, 0x3b	; 59
    1094:	0f 92       	push	r0
    1096:	2f 93       	push	r18
    1098:	3f 93       	push	r19
    109a:	4f 93       	push	r20
    109c:	5f 93       	push	r21
    109e:	6f 93       	push	r22
    10a0:	7f 93       	push	r23
    10a2:	8f 93       	push	r24
    10a4:	9f 93       	push	r25
    10a6:	af 93       	push	r26
    10a8:	bf 93       	push	r27
    10aa:	ef 93       	push	r30
    10ac:	ff 93       	push	r31
    10ae:	e0 91 28 21 	lds	r30, 0x2128	; 0x802128 <tc_tcd0_ccd_callback>
    10b2:	f0 91 29 21 	lds	r31, 0x2129	; 0x802129 <tc_tcd0_ccd_callback+0x1>
    10b6:	30 97       	sbiw	r30, 0x00	; 0
    10b8:	09 f0       	breq	.+2      	; 0x10bc <__vector_82+0x34>
    10ba:	19 95       	eicall
    10bc:	ff 91       	pop	r31
    10be:	ef 91       	pop	r30
    10c0:	bf 91       	pop	r27
    10c2:	af 91       	pop	r26
    10c4:	9f 91       	pop	r25
    10c6:	8f 91       	pop	r24
    10c8:	7f 91       	pop	r23
    10ca:	6f 91       	pop	r22
    10cc:	5f 91       	pop	r21
    10ce:	4f 91       	pop	r20
    10d0:	3f 91       	pop	r19
    10d2:	2f 91       	pop	r18
    10d4:	0f 90       	pop	r0
    10d6:	0b be       	out	0x3b, r0	; 59
    10d8:	0f 90       	pop	r0
    10da:	0f be       	out	0x3f, r0	; 63
    10dc:	0f 90       	pop	r0
    10de:	1f 90       	pop	r1
    10e0:	18 95       	reti

000010e2 <__vector_47>:
    10e2:	1f 92       	push	r1
    10e4:	0f 92       	push	r0
    10e6:	0f b6       	in	r0, 0x3f	; 63
    10e8:	0f 92       	push	r0
    10ea:	11 24       	eor	r1, r1
    10ec:	0b b6       	in	r0, 0x3b	; 59
    10ee:	0f 92       	push	r0
    10f0:	2f 93       	push	r18
    10f2:	3f 93       	push	r19
    10f4:	4f 93       	push	r20
    10f6:	5f 93       	push	r21
    10f8:	6f 93       	push	r22
    10fa:	7f 93       	push	r23
    10fc:	8f 93       	push	r24
    10fe:	9f 93       	push	r25
    1100:	af 93       	push	r26
    1102:	bf 93       	push	r27
    1104:	ef 93       	push	r30
    1106:	ff 93       	push	r31
    1108:	e0 91 26 21 	lds	r30, 0x2126	; 0x802126 <tc_tce0_ovf_callback>
    110c:	f0 91 27 21 	lds	r31, 0x2127	; 0x802127 <tc_tce0_ovf_callback+0x1>
    1110:	30 97       	sbiw	r30, 0x00	; 0
    1112:	09 f0       	breq	.+2      	; 0x1116 <__vector_47+0x34>
    1114:	19 95       	eicall
    1116:	ff 91       	pop	r31
    1118:	ef 91       	pop	r30
    111a:	bf 91       	pop	r27
    111c:	af 91       	pop	r26
    111e:	9f 91       	pop	r25
    1120:	8f 91       	pop	r24
    1122:	7f 91       	pop	r23
    1124:	6f 91       	pop	r22
    1126:	5f 91       	pop	r21
    1128:	4f 91       	pop	r20
    112a:	3f 91       	pop	r19
    112c:	2f 91       	pop	r18
    112e:	0f 90       	pop	r0
    1130:	0b be       	out	0x3b, r0	; 59
    1132:	0f 90       	pop	r0
    1134:	0f be       	out	0x3f, r0	; 63
    1136:	0f 90       	pop	r0
    1138:	1f 90       	pop	r1
    113a:	18 95       	reti

0000113c <__vector_48>:
    113c:	1f 92       	push	r1
    113e:	0f 92       	push	r0
    1140:	0f b6       	in	r0, 0x3f	; 63
    1142:	0f 92       	push	r0
    1144:	11 24       	eor	r1, r1
    1146:	0b b6       	in	r0, 0x3b	; 59
    1148:	0f 92       	push	r0
    114a:	2f 93       	push	r18
    114c:	3f 93       	push	r19
    114e:	4f 93       	push	r20
    1150:	5f 93       	push	r21
    1152:	6f 93       	push	r22
    1154:	7f 93       	push	r23
    1156:	8f 93       	push	r24
    1158:	9f 93       	push	r25
    115a:	af 93       	push	r26
    115c:	bf 93       	push	r27
    115e:	ef 93       	push	r30
    1160:	ff 93       	push	r31
    1162:	e0 91 24 21 	lds	r30, 0x2124	; 0x802124 <tc_tce0_err_callback>
    1166:	f0 91 25 21 	lds	r31, 0x2125	; 0x802125 <tc_tce0_err_callback+0x1>
    116a:	30 97       	sbiw	r30, 0x00	; 0
    116c:	09 f0       	breq	.+2      	; 0x1170 <__vector_48+0x34>
    116e:	19 95       	eicall
    1170:	ff 91       	pop	r31
    1172:	ef 91       	pop	r30
    1174:	bf 91       	pop	r27
    1176:	af 91       	pop	r26
    1178:	9f 91       	pop	r25
    117a:	8f 91       	pop	r24
    117c:	7f 91       	pop	r23
    117e:	6f 91       	pop	r22
    1180:	5f 91       	pop	r21
    1182:	4f 91       	pop	r20
    1184:	3f 91       	pop	r19
    1186:	2f 91       	pop	r18
    1188:	0f 90       	pop	r0
    118a:	0b be       	out	0x3b, r0	; 59
    118c:	0f 90       	pop	r0
    118e:	0f be       	out	0x3f, r0	; 63
    1190:	0f 90       	pop	r0
    1192:	1f 90       	pop	r1
    1194:	18 95       	reti

00001196 <__vector_49>:
    1196:	1f 92       	push	r1
    1198:	0f 92       	push	r0
    119a:	0f b6       	in	r0, 0x3f	; 63
    119c:	0f 92       	push	r0
    119e:	11 24       	eor	r1, r1
    11a0:	0b b6       	in	r0, 0x3b	; 59
    11a2:	0f 92       	push	r0
    11a4:	2f 93       	push	r18
    11a6:	3f 93       	push	r19
    11a8:	4f 93       	push	r20
    11aa:	5f 93       	push	r21
    11ac:	6f 93       	push	r22
    11ae:	7f 93       	push	r23
    11b0:	8f 93       	push	r24
    11b2:	9f 93       	push	r25
    11b4:	af 93       	push	r26
    11b6:	bf 93       	push	r27
    11b8:	ef 93       	push	r30
    11ba:	ff 93       	push	r31
    11bc:	e0 91 22 21 	lds	r30, 0x2122	; 0x802122 <tc_tce0_cca_callback>
    11c0:	f0 91 23 21 	lds	r31, 0x2123	; 0x802123 <tc_tce0_cca_callback+0x1>
    11c4:	30 97       	sbiw	r30, 0x00	; 0
    11c6:	09 f0       	breq	.+2      	; 0x11ca <__vector_49+0x34>
    11c8:	19 95       	eicall
    11ca:	ff 91       	pop	r31
    11cc:	ef 91       	pop	r30
    11ce:	bf 91       	pop	r27
    11d0:	af 91       	pop	r26
    11d2:	9f 91       	pop	r25
    11d4:	8f 91       	pop	r24
    11d6:	7f 91       	pop	r23
    11d8:	6f 91       	pop	r22
    11da:	5f 91       	pop	r21
    11dc:	4f 91       	pop	r20
    11de:	3f 91       	pop	r19
    11e0:	2f 91       	pop	r18
    11e2:	0f 90       	pop	r0
    11e4:	0b be       	out	0x3b, r0	; 59
    11e6:	0f 90       	pop	r0
    11e8:	0f be       	out	0x3f, r0	; 63
    11ea:	0f 90       	pop	r0
    11ec:	1f 90       	pop	r1
    11ee:	18 95       	reti

000011f0 <__vector_50>:
    11f0:	1f 92       	push	r1
    11f2:	0f 92       	push	r0
    11f4:	0f b6       	in	r0, 0x3f	; 63
    11f6:	0f 92       	push	r0
    11f8:	11 24       	eor	r1, r1
    11fa:	0b b6       	in	r0, 0x3b	; 59
    11fc:	0f 92       	push	r0
    11fe:	2f 93       	push	r18
    1200:	3f 93       	push	r19
    1202:	4f 93       	push	r20
    1204:	5f 93       	push	r21
    1206:	6f 93       	push	r22
    1208:	7f 93       	push	r23
    120a:	8f 93       	push	r24
    120c:	9f 93       	push	r25
    120e:	af 93       	push	r26
    1210:	bf 93       	push	r27
    1212:	ef 93       	push	r30
    1214:	ff 93       	push	r31
    1216:	e0 91 20 21 	lds	r30, 0x2120	; 0x802120 <tc_tce0_ccb_callback>
    121a:	f0 91 21 21 	lds	r31, 0x2121	; 0x802121 <tc_tce0_ccb_callback+0x1>
    121e:	30 97       	sbiw	r30, 0x00	; 0
    1220:	09 f0       	breq	.+2      	; 0x1224 <__vector_50+0x34>
    1222:	19 95       	eicall
    1224:	ff 91       	pop	r31
    1226:	ef 91       	pop	r30
    1228:	bf 91       	pop	r27
    122a:	af 91       	pop	r26
    122c:	9f 91       	pop	r25
    122e:	8f 91       	pop	r24
    1230:	7f 91       	pop	r23
    1232:	6f 91       	pop	r22
    1234:	5f 91       	pop	r21
    1236:	4f 91       	pop	r20
    1238:	3f 91       	pop	r19
    123a:	2f 91       	pop	r18
    123c:	0f 90       	pop	r0
    123e:	0b be       	out	0x3b, r0	; 59
    1240:	0f 90       	pop	r0
    1242:	0f be       	out	0x3f, r0	; 63
    1244:	0f 90       	pop	r0
    1246:	1f 90       	pop	r1
    1248:	18 95       	reti

0000124a <__vector_51>:
    124a:	1f 92       	push	r1
    124c:	0f 92       	push	r0
    124e:	0f b6       	in	r0, 0x3f	; 63
    1250:	0f 92       	push	r0
    1252:	11 24       	eor	r1, r1
    1254:	0b b6       	in	r0, 0x3b	; 59
    1256:	0f 92       	push	r0
    1258:	2f 93       	push	r18
    125a:	3f 93       	push	r19
    125c:	4f 93       	push	r20
    125e:	5f 93       	push	r21
    1260:	6f 93       	push	r22
    1262:	7f 93       	push	r23
    1264:	8f 93       	push	r24
    1266:	9f 93       	push	r25
    1268:	af 93       	push	r26
    126a:	bf 93       	push	r27
    126c:	ef 93       	push	r30
    126e:	ff 93       	push	r31
    1270:	e0 91 1e 21 	lds	r30, 0x211E	; 0x80211e <tc_tce0_ccc_callback>
    1274:	f0 91 1f 21 	lds	r31, 0x211F	; 0x80211f <tc_tce0_ccc_callback+0x1>
    1278:	30 97       	sbiw	r30, 0x00	; 0
    127a:	09 f0       	breq	.+2      	; 0x127e <__vector_51+0x34>
    127c:	19 95       	eicall
    127e:	ff 91       	pop	r31
    1280:	ef 91       	pop	r30
    1282:	bf 91       	pop	r27
    1284:	af 91       	pop	r26
    1286:	9f 91       	pop	r25
    1288:	8f 91       	pop	r24
    128a:	7f 91       	pop	r23
    128c:	6f 91       	pop	r22
    128e:	5f 91       	pop	r21
    1290:	4f 91       	pop	r20
    1292:	3f 91       	pop	r19
    1294:	2f 91       	pop	r18
    1296:	0f 90       	pop	r0
    1298:	0b be       	out	0x3b, r0	; 59
    129a:	0f 90       	pop	r0
    129c:	0f be       	out	0x3f, r0	; 63
    129e:	0f 90       	pop	r0
    12a0:	1f 90       	pop	r1
    12a2:	18 95       	reti

000012a4 <__vector_52>:
    12a4:	1f 92       	push	r1
    12a6:	0f 92       	push	r0
    12a8:	0f b6       	in	r0, 0x3f	; 63
    12aa:	0f 92       	push	r0
    12ac:	11 24       	eor	r1, r1
    12ae:	0b b6       	in	r0, 0x3b	; 59
    12b0:	0f 92       	push	r0
    12b2:	2f 93       	push	r18
    12b4:	3f 93       	push	r19
    12b6:	4f 93       	push	r20
    12b8:	5f 93       	push	r21
    12ba:	6f 93       	push	r22
    12bc:	7f 93       	push	r23
    12be:	8f 93       	push	r24
    12c0:	9f 93       	push	r25
    12c2:	af 93       	push	r26
    12c4:	bf 93       	push	r27
    12c6:	ef 93       	push	r30
    12c8:	ff 93       	push	r31
    12ca:	e0 91 1c 21 	lds	r30, 0x211C	; 0x80211c <tc_tce0_ccd_callback>
    12ce:	f0 91 1d 21 	lds	r31, 0x211D	; 0x80211d <tc_tce0_ccd_callback+0x1>
    12d2:	30 97       	sbiw	r30, 0x00	; 0
    12d4:	09 f0       	breq	.+2      	; 0x12d8 <__vector_52+0x34>
    12d6:	19 95       	eicall
    12d8:	ff 91       	pop	r31
    12da:	ef 91       	pop	r30
    12dc:	bf 91       	pop	r27
    12de:	af 91       	pop	r26
    12e0:	9f 91       	pop	r25
    12e2:	8f 91       	pop	r24
    12e4:	7f 91       	pop	r23
    12e6:	6f 91       	pop	r22
    12e8:	5f 91       	pop	r21
    12ea:	4f 91       	pop	r20
    12ec:	3f 91       	pop	r19
    12ee:	2f 91       	pop	r18
    12f0:	0f 90       	pop	r0
    12f2:	0b be       	out	0x3b, r0	; 59
    12f4:	0f 90       	pop	r0
    12f6:	0f be       	out	0x3f, r0	; 63
    12f8:	0f 90       	pop	r0
    12fa:	1f 90       	pop	r1
    12fc:	18 95       	reti

000012fe <tc_enable>:
    12fe:	1f 93       	push	r17
    1300:	cf 93       	push	r28
    1302:	df 93       	push	r29
    1304:	ec 01       	movw	r28, r24
    1306:	10 dc       	rcall	.-2016   	; 0xb28 <cpu_irq_save>
    1308:	18 2f       	mov	r17, r24
    130a:	c1 15       	cp	r28, r1
    130c:	88 e0       	ldi	r24, 0x08	; 8
    130e:	d8 07       	cpc	r29, r24
    1310:	11 f4       	brne	.+4      	; 0x1316 <tc_enable+0x18>
    1312:	61 e0       	ldi	r22, 0x01	; 1
    1314:	05 c0       	rjmp	.+10     	; 0x1320 <tc_enable+0x22>
    1316:	c0 34       	cpi	r28, 0x40	; 64
    1318:	88 e0       	ldi	r24, 0x08	; 8
    131a:	d8 07       	cpc	r29, r24
    131c:	31 f4       	brne	.+12     	; 0x132a <tc_enable+0x2c>
    131e:	62 e0       	ldi	r22, 0x02	; 2
    1320:	83 e0       	ldi	r24, 0x03	; 3
    1322:	f1 db       	rcall	.-2078   	; 0xb06 <sysclk_enable_module>
    1324:	64 e0       	ldi	r22, 0x04	; 4
    1326:	83 e0       	ldi	r24, 0x03	; 3
    1328:	12 c0       	rjmp	.+36     	; 0x134e <tc_enable+0x50>
    132a:	c1 15       	cp	r28, r1
    132c:	89 e0       	ldi	r24, 0x09	; 9
    132e:	d8 07       	cpc	r29, r24
    1330:	31 f4       	brne	.+12     	; 0x133e <tc_enable+0x40>
    1332:	61 e0       	ldi	r22, 0x01	; 1
    1334:	84 e0       	ldi	r24, 0x04	; 4
    1336:	e7 db       	rcall	.-2098   	; 0xb06 <sysclk_enable_module>
    1338:	64 e0       	ldi	r22, 0x04	; 4
    133a:	84 e0       	ldi	r24, 0x04	; 4
    133c:	08 c0       	rjmp	.+16     	; 0x134e <tc_enable+0x50>
    133e:	c1 15       	cp	r28, r1
    1340:	da 40       	sbci	r29, 0x0A	; 10
    1342:	91 f4       	brne	.+36     	; 0x1368 <tc_enable+0x6a>
    1344:	61 e0       	ldi	r22, 0x01	; 1
    1346:	85 e0       	ldi	r24, 0x05	; 5
    1348:	de db       	rcall	.-2116   	; 0xb06 <sysclk_enable_module>
    134a:	64 e0       	ldi	r22, 0x04	; 4
    134c:	85 e0       	ldi	r24, 0x05	; 5
    134e:	db db       	rcall	.-2122   	; 0xb06 <sysclk_enable_module>
    1350:	80 91 9d 21 	lds	r24, 0x219D	; 0x80219d <sleepmgr_locks+0x1>
    1354:	8f 3f       	cpi	r24, 0xFF	; 255
    1356:	09 f4       	brne	.+2      	; 0x135a <tc_enable+0x5c>
    1358:	ff cf       	rjmp	.-2      	; 0x1358 <tc_enable+0x5a>
    135a:	e6 db       	rcall	.-2100   	; 0xb28 <cpu_irq_save>
    135c:	90 91 9d 21 	lds	r25, 0x219D	; 0x80219d <sleepmgr_locks+0x1>
    1360:	9f 5f       	subi	r25, 0xFF	; 255
    1362:	90 93 9d 21 	sts	0x219D, r25	; 0x80219d <sleepmgr_locks+0x1>
    1366:	8f bf       	out	0x3f, r24	; 63
    1368:	1f bf       	out	0x3f, r17	; 63
    136a:	df 91       	pop	r29
    136c:	cf 91       	pop	r28
    136e:	1f 91       	pop	r17
    1370:	08 95       	ret

00001372 <ccp_write_io>:
    1372:	1b be       	out	0x3b, r1	; 59
    1374:	fc 01       	movw	r30, r24
    1376:	28 ed       	ldi	r18, 0xD8	; 216
    1378:	24 bf       	out	0x34, r18	; 52
    137a:	60 83       	st	Z, r22
    137c:	08 95       	ret

0000137e <CWPlatInit>:
    137e:	cf 93       	push	r28
    1380:	df 93       	push	r29
    1382:	cd b7       	in	r28, 0x3d	; 61
    1384:	de b7       	in	r29, 0x3e	; 62
    1386:	27 97       	sbiw	r28, 0x07	; 7
    1388:	cd bf       	out	0x3d, r28	; 61
    138a:	de bf       	out	0x3e, r29	; 62
    138c:	94 db       	rcall	.-2264   	; 0xab6 <sysclk_init>
    138e:	e0 e4       	ldi	r30, 0x40	; 64
    1390:	f6 e0       	ldi	r31, 0x06	; 6
    1392:	88 e0       	ldi	r24, 0x08	; 8
    1394:	81 83       	std	Z+1, r24	; 0x01
    1396:	84 e0       	ldi	r24, 0x04	; 4
    1398:	82 83       	std	Z+2, r24	; 0x02
    139a:	e0 e0       	ldi	r30, 0x00	; 0
    139c:	f6 e0       	ldi	r31, 0x06	; 6
    139e:	81 e0       	ldi	r24, 0x01	; 1
    13a0:	81 83       	std	Z+1, r24	; 0x01
    13a2:	80 e2       	ldi	r24, 0x20	; 32
    13a4:	81 83       	std	Z+1, r24	; 0x01
    13a6:	86 83       	std	Z+6, r24	; 0x06
    13a8:	80 e4       	ldi	r24, 0x40	; 64
    13aa:	81 83       	std	Z+1, r24	; 0x01
    13ac:	85 83       	std	Z+5, r24	; 0x05
    13ae:	e0 e1       	ldi	r30, 0x10	; 16
    13b0:	f1 e2       	ldi	r31, 0x21	; 33
    13b2:	84 81       	ldd	r24, Z+4	; 0x04
    13b4:	8d 83       	std	Y+5, r24	; 0x05
    13b6:	85 81       	ldd	r24, Z+5	; 0x05
    13b8:	8e 83       	std	Y+6, r24	; 0x06
    13ba:	86 81       	ldd	r24, Z+6	; 0x06
    13bc:	8f 83       	std	Y+7, r24	; 0x07
    13be:	80 81       	ld	r24, Z
    13c0:	91 81       	ldd	r25, Z+1	; 0x01
    13c2:	a2 81       	ldd	r26, Z+2	; 0x02
    13c4:	b3 81       	ldd	r27, Z+3	; 0x03
    13c6:	89 83       	std	Y+1, r24	; 0x01
    13c8:	9a 83       	std	Y+2, r25	; 0x02
    13ca:	ab 83       	std	Y+3, r26	; 0x03
    13cc:	bc 83       	std	Y+4, r27	; 0x04
    13ce:	60 e1       	ldi	r22, 0x10	; 16
    13d0:	83 e0       	ldi	r24, 0x03	; 3
    13d2:	99 db       	rcall	.-2254   	; 0xb06 <sysclk_enable_module>
    13d4:	be 01       	movw	r22, r28
    13d6:	6f 5f       	subi	r22, 0xFF	; 255
    13d8:	7f 4f       	sbci	r23, 0xFF	; 255
    13da:	80 ea       	ldi	r24, 0xA0	; 160
    13dc:	98 e0       	ldi	r25, 0x08	; 8
    13de:	4a d8       	rcall	.-3948   	; 0x474 <usart_init_rs232>
    13e0:	80 e0       	ldi	r24, 0x00	; 0
    13e2:	98 e0       	ldi	r25, 0x08	; 8
    13e4:	8c df       	rcall	.-232    	; 0x12fe <tc_enable>
    13e6:	e0 e0       	ldi	r30, 0x00	; 0
    13e8:	f8 e0       	ldi	r31, 0x08	; 8
    13ea:	81 81       	ldd	r24, Z+1	; 0x01
    13ec:	88 7f       	andi	r24, 0xF8	; 248
    13ee:	81 83       	std	Z+1, r24	; 0x01
    13f0:	80 85       	ldd	r24, Z+8	; 0x08
    13f2:	8e 6f       	ori	r24, 0xFE	; 254
    13f4:	80 87       	std	Z+8, r24	; 0x08
    13f6:	80 81       	ld	r24, Z
    13f8:	80 7f       	andi	r24, 0xF0	; 240
    13fa:	83 60       	ori	r24, 0x03	; 3
    13fc:	80 83       	st	Z, r24
    13fe:	27 96       	adiw	r28, 0x07	; 7
    1400:	cd bf       	out	0x3d, r28	; 61
    1402:	de bf       	out	0x3e, r29	; 62
    1404:	df 91       	pop	r29
    1406:	cf 91       	pop	r28
    1408:	08 95       	ret

0000140a <main>:
    140a:	b9 df       	rcall	.-142    	; 0x137e <CWPlatInit>
    140c:	d0 e0       	ldi	r29, 0x00	; 0
    140e:	c0 e0       	ldi	r28, 0x00	; 0
    1410:	80 ea       	ldi	r24, 0xA0	; 160
    1412:	98 e0       	ldi	r25, 0x08	; 8
    1414:	0e 94 51 01 	call	0x2a2	; 0x2a2 <usart_getchar>
    1418:	88 37       	cpi	r24, 0x78	; 120
    141a:	c1 f3       	breq	.-16     	; 0x140c <main+0x2>
    141c:	8b 36       	cpi	r24, 0x6B	; 107
    141e:	11 f4       	brne	.+4      	; 0x1424 <main+0x1a>
    1420:	d1 e0       	ldi	r29, 0x01	; 1
    1422:	f5 cf       	rjmp	.-22     	; 0x140e <main+0x4>
    1424:	80 37       	cpi	r24, 0x70	; 112
    1426:	11 f4       	brne	.+4      	; 0x142c <main+0x22>
    1428:	d2 e0       	ldi	r29, 0x02	; 2
    142a:	f1 cf       	rjmp	.-30     	; 0x140e <main+0x4>
    142c:	d1 30       	cpi	r29, 0x01	; 1
    142e:	91 f4       	brne	.+36     	; 0x1454 <main+0x4a>
    1430:	6c 2f       	mov	r22, r28
    1432:	70 e0       	ldi	r23, 0x00	; 0
    1434:	fb 01       	movw	r30, r22
    1436:	8a 30       	cpi	r24, 0x0A	; 10
    1438:	19 f0       	breq	.+6      	; 0x1440 <main+0x36>
    143a:	8d 30       	cpi	r24, 0x0D	; 13
    143c:	09 f0       	breq	.+2      	; 0x1440 <main+0x36>
    143e:	4d c0       	rjmp	.+154    	; 0x14da <main+0xd0>
    1440:	ee 55       	subi	r30, 0x5E	; 94
    1442:	fe 4d       	sbci	r31, 0xDE	; 222
    1444:	10 82       	st	Z, r1
    1446:	42 e4       	ldi	r20, 0x42	; 66
    1448:	52 e2       	ldi	r21, 0x22	; 34
    144a:	82 ea       	ldi	r24, 0xA2	; 162
    144c:	91 e2       	ldi	r25, 0x21	; 33
    144e:	3b d8       	rcall	.-3978   	; 0x4c6 <hex_decode>
    1450:	d0 e0       	ldi	r29, 0x00	; 0
    1452:	de cf       	rjmp	.-68     	; 0x1410 <main+0x6>
    1454:	d2 30       	cpi	r29, 0x02	; 2
    1456:	e1 f6       	brne	.-72     	; 0x1410 <main+0x6>
    1458:	8a 30       	cpi	r24, 0x0A	; 10
    145a:	11 f0       	breq	.+4      	; 0x1460 <main+0x56>
    145c:	8d 30       	cpi	r24, 0x0D	; 13
    145e:	c1 f5       	brne	.+112    	; 0x14d0 <main+0xc6>
    1460:	6c 2f       	mov	r22, r28
    1462:	70 e0       	ldi	r23, 0x00	; 0
    1464:	fb 01       	movw	r30, r22
    1466:	ee 55       	subi	r30, 0x5E	; 94
    1468:	fe 4d       	sbci	r31, 0xDE	; 222
    146a:	10 82       	st	Z, r1
    146c:	42 ee       	ldi	r20, 0xE2	; 226
    146e:	51 e2       	ldi	r21, 0x21	; 33
    1470:	82 ea       	ldi	r24, 0xA2	; 162
    1472:	91 e2       	ldi	r25, 0x21	; 33
    1474:	28 d8       	rcall	.-4016   	; 0x4c6 <hex_decode>
    1476:	10 92 20 08 	sts	0x0820, r1	; 0x800820 <__TEXT_REGION_LENGTH__+0x700820>
    147a:	10 92 21 08 	sts	0x0821, r1	; 0x800821 <__TEXT_REGION_LENGTH__+0x700821>
    147e:	5e d9       	rcall	.-3396   	; 0x73c <encryptionInit>
    1480:	62 ee       	ldi	r22, 0xE2	; 226
    1482:	71 e2       	ldi	r23, 0x21	; 33
    1484:	82 e3       	ldi	r24, 0x32	; 50
    1486:	92 e2       	ldi	r25, 0x22	; 34
    1488:	af da       	rcall	.-2722   	; 0x9e8 <encryption>
    148a:	80 91 20 08 	lds	r24, 0x0820	; 0x800820 <__TEXT_REGION_LENGTH__+0x700820>
    148e:	90 91 21 08 	lds	r25, 0x0821	; 0x800821 <__TEXT_REGION_LENGTH__+0x700821>
    1492:	42 ea       	ldi	r20, 0xA2	; 162
    1494:	51 e2       	ldi	r21, 0x21	; 33
    1496:	60 e1       	ldi	r22, 0x10	; 16
    1498:	70 e0       	ldi	r23, 0x00	; 0
    149a:	82 e3       	ldi	r24, 0x32	; 50
    149c:	92 e2       	ldi	r25, 0x22	; 34
    149e:	47 d8       	rcall	.-3954   	; 0x52e <hex_print>
    14a0:	62 e7       	ldi	r22, 0x72	; 114
    14a2:	80 ea       	ldi	r24, 0xA0	; 160
    14a4:	98 e0       	ldi	r25, 0x08	; 8
    14a6:	0e 94 49 01 	call	0x292	; 0x292 <usart_putchar>
    14aa:	02 ea       	ldi	r16, 0xA2	; 162
    14ac:	11 e2       	ldi	r17, 0x21	; 33
    14ae:	f8 01       	movw	r30, r16
    14b0:	61 91       	ld	r22, Z+
    14b2:	8f 01       	movw	r16, r30
    14b4:	80 ea       	ldi	r24, 0xA0	; 160
    14b6:	98 e0       	ldi	r25, 0x08	; 8
    14b8:	0e 94 49 01 	call	0x292	; 0x292 <usart_putchar>
    14bc:	f1 e2       	ldi	r31, 0x21	; 33
    14be:	02 3c       	cpi	r16, 0xC2	; 194
    14c0:	1f 07       	cpc	r17, r31
    14c2:	a9 f7       	brne	.-22     	; 0x14ae <main+0xa4>
    14c4:	6a e0       	ldi	r22, 0x0A	; 10
    14c6:	80 ea       	ldi	r24, 0xA0	; 160
    14c8:	98 e0       	ldi	r25, 0x08	; 8
    14ca:	0e 94 49 01 	call	0x292	; 0x292 <usart_putchar>
    14ce:	c0 cf       	rjmp	.-128    	; 0x1450 <main+0x46>
    14d0:	c0 34       	cpi	r28, 0x40	; 64
    14d2:	08 f0       	brcs	.+2      	; 0x14d6 <main+0xcc>
    14d4:	bd cf       	rjmp	.-134    	; 0x1450 <main+0x46>
    14d6:	ec 2f       	mov	r30, r28
    14d8:	f0 e0       	ldi	r31, 0x00	; 0
    14da:	ee 55       	subi	r30, 0x5E	; 94
    14dc:	fe 4d       	sbci	r31, 0xDE	; 222
    14de:	80 83       	st	Z, r24
    14e0:	cf 5f       	subi	r28, 0xFF	; 255
    14e2:	96 cf       	rjmp	.-212    	; 0x1410 <main+0x6>

000014e4 <__subsf3>:
    14e4:	50 58       	subi	r21, 0x80	; 128

000014e6 <__addsf3>:
    14e6:	bb 27       	eor	r27, r27
    14e8:	aa 27       	eor	r26, r26
    14ea:	0e d0       	rcall	.+28     	; 0x1508 <__addsf3x>
    14ec:	6c c1       	rjmp	.+728    	; 0x17c6 <__fp_round>
    14ee:	5d d1       	rcall	.+698    	; 0x17aa <__fp_pscA>
    14f0:	30 f0       	brcs	.+12     	; 0x14fe <__addsf3+0x18>
    14f2:	62 d1       	rcall	.+708    	; 0x17b8 <__fp_pscB>
    14f4:	20 f0       	brcs	.+8      	; 0x14fe <__addsf3+0x18>
    14f6:	31 f4       	brne	.+12     	; 0x1504 <__addsf3+0x1e>
    14f8:	9f 3f       	cpi	r25, 0xFF	; 255
    14fa:	11 f4       	brne	.+4      	; 0x1500 <__addsf3+0x1a>
    14fc:	1e f4       	brtc	.+6      	; 0x1504 <__addsf3+0x1e>
    14fe:	52 c1       	rjmp	.+676    	; 0x17a4 <__fp_nan>
    1500:	0e f4       	brtc	.+2      	; 0x1504 <__addsf3+0x1e>
    1502:	e0 95       	com	r30
    1504:	e7 fb       	bst	r30, 7
    1506:	48 c1       	rjmp	.+656    	; 0x1798 <__fp_inf>

00001508 <__addsf3x>:
    1508:	e9 2f       	mov	r30, r25
    150a:	6e d1       	rcall	.+732    	; 0x17e8 <__fp_split3>
    150c:	80 f3       	brcs	.-32     	; 0x14ee <__addsf3+0x8>
    150e:	ba 17       	cp	r27, r26
    1510:	62 07       	cpc	r22, r18
    1512:	73 07       	cpc	r23, r19
    1514:	84 07       	cpc	r24, r20
    1516:	95 07       	cpc	r25, r21
    1518:	18 f0       	brcs	.+6      	; 0x1520 <__addsf3x+0x18>
    151a:	71 f4       	brne	.+28     	; 0x1538 <__addsf3x+0x30>
    151c:	9e f5       	brtc	.+102    	; 0x1584 <__addsf3x+0x7c>
    151e:	86 c1       	rjmp	.+780    	; 0x182c <__fp_zero>
    1520:	0e f4       	brtc	.+2      	; 0x1524 <__addsf3x+0x1c>
    1522:	e0 95       	com	r30
    1524:	0b 2e       	mov	r0, r27
    1526:	ba 2f       	mov	r27, r26
    1528:	a0 2d       	mov	r26, r0
    152a:	0b 01       	movw	r0, r22
    152c:	b9 01       	movw	r22, r18
    152e:	90 01       	movw	r18, r0
    1530:	0c 01       	movw	r0, r24
    1532:	ca 01       	movw	r24, r20
    1534:	a0 01       	movw	r20, r0
    1536:	11 24       	eor	r1, r1
    1538:	ff 27       	eor	r31, r31
    153a:	59 1b       	sub	r21, r25
    153c:	99 f0       	breq	.+38     	; 0x1564 <__addsf3x+0x5c>
    153e:	59 3f       	cpi	r21, 0xF9	; 249
    1540:	50 f4       	brcc	.+20     	; 0x1556 <__addsf3x+0x4e>
    1542:	50 3e       	cpi	r21, 0xE0	; 224
    1544:	68 f1       	brcs	.+90     	; 0x15a0 <__addsf3x+0x98>
    1546:	1a 16       	cp	r1, r26
    1548:	f0 40       	sbci	r31, 0x00	; 0
    154a:	a2 2f       	mov	r26, r18
    154c:	23 2f       	mov	r18, r19
    154e:	34 2f       	mov	r19, r20
    1550:	44 27       	eor	r20, r20
    1552:	58 5f       	subi	r21, 0xF8	; 248
    1554:	f3 cf       	rjmp	.-26     	; 0x153c <__addsf3x+0x34>
    1556:	46 95       	lsr	r20
    1558:	37 95       	ror	r19
    155a:	27 95       	ror	r18
    155c:	a7 95       	ror	r26
    155e:	f0 40       	sbci	r31, 0x00	; 0
    1560:	53 95       	inc	r21
    1562:	c9 f7       	brne	.-14     	; 0x1556 <__addsf3x+0x4e>
    1564:	7e f4       	brtc	.+30     	; 0x1584 <__addsf3x+0x7c>
    1566:	1f 16       	cp	r1, r31
    1568:	ba 0b       	sbc	r27, r26
    156a:	62 0b       	sbc	r22, r18
    156c:	73 0b       	sbc	r23, r19
    156e:	84 0b       	sbc	r24, r20
    1570:	ba f0       	brmi	.+46     	; 0x15a0 <__addsf3x+0x98>
    1572:	91 50       	subi	r25, 0x01	; 1
    1574:	a1 f0       	breq	.+40     	; 0x159e <__addsf3x+0x96>
    1576:	ff 0f       	add	r31, r31
    1578:	bb 1f       	adc	r27, r27
    157a:	66 1f       	adc	r22, r22
    157c:	77 1f       	adc	r23, r23
    157e:	88 1f       	adc	r24, r24
    1580:	c2 f7       	brpl	.-16     	; 0x1572 <__addsf3x+0x6a>
    1582:	0e c0       	rjmp	.+28     	; 0x15a0 <__addsf3x+0x98>
    1584:	ba 0f       	add	r27, r26
    1586:	62 1f       	adc	r22, r18
    1588:	73 1f       	adc	r23, r19
    158a:	84 1f       	adc	r24, r20
    158c:	48 f4       	brcc	.+18     	; 0x15a0 <__addsf3x+0x98>
    158e:	87 95       	ror	r24
    1590:	77 95       	ror	r23
    1592:	67 95       	ror	r22
    1594:	b7 95       	ror	r27
    1596:	f7 95       	ror	r31
    1598:	9e 3f       	cpi	r25, 0xFE	; 254
    159a:	08 f0       	brcs	.+2      	; 0x159e <__addsf3x+0x96>
    159c:	b3 cf       	rjmp	.-154    	; 0x1504 <__addsf3+0x1e>
    159e:	93 95       	inc	r25
    15a0:	88 0f       	add	r24, r24
    15a2:	08 f0       	brcs	.+2      	; 0x15a6 <__addsf3x+0x9e>
    15a4:	99 27       	eor	r25, r25
    15a6:	ee 0f       	add	r30, r30
    15a8:	97 95       	ror	r25
    15aa:	87 95       	ror	r24
    15ac:	08 95       	ret

000015ae <__divsf3>:
    15ae:	0c d0       	rcall	.+24     	; 0x15c8 <__divsf3x>
    15b0:	0a c1       	rjmp	.+532    	; 0x17c6 <__fp_round>
    15b2:	02 d1       	rcall	.+516    	; 0x17b8 <__fp_pscB>
    15b4:	40 f0       	brcs	.+16     	; 0x15c6 <__divsf3+0x18>
    15b6:	f9 d0       	rcall	.+498    	; 0x17aa <__fp_pscA>
    15b8:	30 f0       	brcs	.+12     	; 0x15c6 <__divsf3+0x18>
    15ba:	21 f4       	brne	.+8      	; 0x15c4 <__divsf3+0x16>
    15bc:	5f 3f       	cpi	r21, 0xFF	; 255
    15be:	19 f0       	breq	.+6      	; 0x15c6 <__divsf3+0x18>
    15c0:	eb c0       	rjmp	.+470    	; 0x1798 <__fp_inf>
    15c2:	51 11       	cpse	r21, r1
    15c4:	34 c1       	rjmp	.+616    	; 0x182e <__fp_szero>
    15c6:	ee c0       	rjmp	.+476    	; 0x17a4 <__fp_nan>

000015c8 <__divsf3x>:
    15c8:	0f d1       	rcall	.+542    	; 0x17e8 <__fp_split3>
    15ca:	98 f3       	brcs	.-26     	; 0x15b2 <__divsf3+0x4>

000015cc <__divsf3_pse>:
    15cc:	99 23       	and	r25, r25
    15ce:	c9 f3       	breq	.-14     	; 0x15c2 <__divsf3+0x14>
    15d0:	55 23       	and	r21, r21
    15d2:	b1 f3       	breq	.-20     	; 0x15c0 <__divsf3+0x12>
    15d4:	95 1b       	sub	r25, r21
    15d6:	55 0b       	sbc	r21, r21
    15d8:	bb 27       	eor	r27, r27
    15da:	aa 27       	eor	r26, r26
    15dc:	62 17       	cp	r22, r18
    15de:	73 07       	cpc	r23, r19
    15e0:	84 07       	cpc	r24, r20
    15e2:	38 f0       	brcs	.+14     	; 0x15f2 <__divsf3_pse+0x26>
    15e4:	9f 5f       	subi	r25, 0xFF	; 255
    15e6:	5f 4f       	sbci	r21, 0xFF	; 255
    15e8:	22 0f       	add	r18, r18
    15ea:	33 1f       	adc	r19, r19
    15ec:	44 1f       	adc	r20, r20
    15ee:	aa 1f       	adc	r26, r26
    15f0:	a9 f3       	breq	.-22     	; 0x15dc <__divsf3_pse+0x10>
    15f2:	33 d0       	rcall	.+102    	; 0x165a <__divsf3_pse+0x8e>
    15f4:	0e 2e       	mov	r0, r30
    15f6:	3a f0       	brmi	.+14     	; 0x1606 <__divsf3_pse+0x3a>
    15f8:	e0 e8       	ldi	r30, 0x80	; 128
    15fa:	30 d0       	rcall	.+96     	; 0x165c <__divsf3_pse+0x90>
    15fc:	91 50       	subi	r25, 0x01	; 1
    15fe:	50 40       	sbci	r21, 0x00	; 0
    1600:	e6 95       	lsr	r30
    1602:	00 1c       	adc	r0, r0
    1604:	ca f7       	brpl	.-14     	; 0x15f8 <__divsf3_pse+0x2c>
    1606:	29 d0       	rcall	.+82     	; 0x165a <__divsf3_pse+0x8e>
    1608:	fe 2f       	mov	r31, r30
    160a:	27 d0       	rcall	.+78     	; 0x165a <__divsf3_pse+0x8e>
    160c:	66 0f       	add	r22, r22
    160e:	77 1f       	adc	r23, r23
    1610:	88 1f       	adc	r24, r24
    1612:	bb 1f       	adc	r27, r27
    1614:	26 17       	cp	r18, r22
    1616:	37 07       	cpc	r19, r23
    1618:	48 07       	cpc	r20, r24
    161a:	ab 07       	cpc	r26, r27
    161c:	b0 e8       	ldi	r27, 0x80	; 128
    161e:	09 f0       	breq	.+2      	; 0x1622 <__divsf3_pse+0x56>
    1620:	bb 0b       	sbc	r27, r27
    1622:	80 2d       	mov	r24, r0
    1624:	bf 01       	movw	r22, r30
    1626:	ff 27       	eor	r31, r31
    1628:	93 58       	subi	r25, 0x83	; 131
    162a:	5f 4f       	sbci	r21, 0xFF	; 255
    162c:	2a f0       	brmi	.+10     	; 0x1638 <__divsf3_pse+0x6c>
    162e:	9e 3f       	cpi	r25, 0xFE	; 254
    1630:	51 05       	cpc	r21, r1
    1632:	68 f0       	brcs	.+26     	; 0x164e <__divsf3_pse+0x82>
    1634:	b1 c0       	rjmp	.+354    	; 0x1798 <__fp_inf>
    1636:	fb c0       	rjmp	.+502    	; 0x182e <__fp_szero>
    1638:	5f 3f       	cpi	r21, 0xFF	; 255
    163a:	ec f3       	brlt	.-6      	; 0x1636 <__divsf3_pse+0x6a>
    163c:	98 3e       	cpi	r25, 0xE8	; 232
    163e:	dc f3       	brlt	.-10     	; 0x1636 <__divsf3_pse+0x6a>
    1640:	86 95       	lsr	r24
    1642:	77 95       	ror	r23
    1644:	67 95       	ror	r22
    1646:	b7 95       	ror	r27
    1648:	f7 95       	ror	r31
    164a:	9f 5f       	subi	r25, 0xFF	; 255
    164c:	c9 f7       	brne	.-14     	; 0x1640 <__divsf3_pse+0x74>
    164e:	88 0f       	add	r24, r24
    1650:	91 1d       	adc	r25, r1
    1652:	96 95       	lsr	r25
    1654:	87 95       	ror	r24
    1656:	97 f9       	bld	r25, 7
    1658:	08 95       	ret
    165a:	e1 e0       	ldi	r30, 0x01	; 1
    165c:	66 0f       	add	r22, r22
    165e:	77 1f       	adc	r23, r23
    1660:	88 1f       	adc	r24, r24
    1662:	bb 1f       	adc	r27, r27
    1664:	62 17       	cp	r22, r18
    1666:	73 07       	cpc	r23, r19
    1668:	84 07       	cpc	r24, r20
    166a:	ba 07       	cpc	r27, r26
    166c:	20 f0       	brcs	.+8      	; 0x1676 <__divsf3_pse+0xaa>
    166e:	62 1b       	sub	r22, r18
    1670:	73 0b       	sbc	r23, r19
    1672:	84 0b       	sbc	r24, r20
    1674:	ba 0b       	sbc	r27, r26
    1676:	ee 1f       	adc	r30, r30
    1678:	88 f7       	brcc	.-30     	; 0x165c <__divsf3_pse+0x90>
    167a:	e0 95       	com	r30
    167c:	08 95       	ret

0000167e <__fixunssfsi>:
    167e:	bc d0       	rcall	.+376    	; 0x17f8 <__fp_splitA>
    1680:	88 f0       	brcs	.+34     	; 0x16a4 <__fixunssfsi+0x26>
    1682:	9f 57       	subi	r25, 0x7F	; 127
    1684:	90 f0       	brcs	.+36     	; 0x16aa <__fixunssfsi+0x2c>
    1686:	b9 2f       	mov	r27, r25
    1688:	99 27       	eor	r25, r25
    168a:	b7 51       	subi	r27, 0x17	; 23
    168c:	a0 f0       	brcs	.+40     	; 0x16b6 <__fixunssfsi+0x38>
    168e:	d1 f0       	breq	.+52     	; 0x16c4 <__fixunssfsi+0x46>
    1690:	66 0f       	add	r22, r22
    1692:	77 1f       	adc	r23, r23
    1694:	88 1f       	adc	r24, r24
    1696:	99 1f       	adc	r25, r25
    1698:	1a f0       	brmi	.+6      	; 0x16a0 <__fixunssfsi+0x22>
    169a:	ba 95       	dec	r27
    169c:	c9 f7       	brne	.-14     	; 0x1690 <__fixunssfsi+0x12>
    169e:	12 c0       	rjmp	.+36     	; 0x16c4 <__fixunssfsi+0x46>
    16a0:	b1 30       	cpi	r27, 0x01	; 1
    16a2:	81 f0       	breq	.+32     	; 0x16c4 <__fixunssfsi+0x46>
    16a4:	c3 d0       	rcall	.+390    	; 0x182c <__fp_zero>
    16a6:	b1 e0       	ldi	r27, 0x01	; 1
    16a8:	08 95       	ret
    16aa:	c0 c0       	rjmp	.+384    	; 0x182c <__fp_zero>
    16ac:	67 2f       	mov	r22, r23
    16ae:	78 2f       	mov	r23, r24
    16b0:	88 27       	eor	r24, r24
    16b2:	b8 5f       	subi	r27, 0xF8	; 248
    16b4:	39 f0       	breq	.+14     	; 0x16c4 <__fixunssfsi+0x46>
    16b6:	b9 3f       	cpi	r27, 0xF9	; 249
    16b8:	cc f3       	brlt	.-14     	; 0x16ac <__fixunssfsi+0x2e>
    16ba:	86 95       	lsr	r24
    16bc:	77 95       	ror	r23
    16be:	67 95       	ror	r22
    16c0:	b3 95       	inc	r27
    16c2:	d9 f7       	brne	.-10     	; 0x16ba <__fixunssfsi+0x3c>
    16c4:	3e f4       	brtc	.+14     	; 0x16d4 <__fixunssfsi+0x56>
    16c6:	90 95       	com	r25
    16c8:	80 95       	com	r24
    16ca:	70 95       	com	r23
    16cc:	61 95       	neg	r22
    16ce:	7f 4f       	sbci	r23, 0xFF	; 255
    16d0:	8f 4f       	sbci	r24, 0xFF	; 255
    16d2:	9f 4f       	sbci	r25, 0xFF	; 255
    16d4:	08 95       	ret

000016d6 <__floatunsisf>:
    16d6:	e8 94       	clt
    16d8:	09 c0       	rjmp	.+18     	; 0x16ec <__floatsisf+0x12>

000016da <__floatsisf>:
    16da:	97 fb       	bst	r25, 7
    16dc:	3e f4       	brtc	.+14     	; 0x16ec <__floatsisf+0x12>
    16de:	90 95       	com	r25
    16e0:	80 95       	com	r24
    16e2:	70 95       	com	r23
    16e4:	61 95       	neg	r22
    16e6:	7f 4f       	sbci	r23, 0xFF	; 255
    16e8:	8f 4f       	sbci	r24, 0xFF	; 255
    16ea:	9f 4f       	sbci	r25, 0xFF	; 255
    16ec:	99 23       	and	r25, r25
    16ee:	a9 f0       	breq	.+42     	; 0x171a <__floatsisf+0x40>
    16f0:	f9 2f       	mov	r31, r25
    16f2:	96 e9       	ldi	r25, 0x96	; 150
    16f4:	bb 27       	eor	r27, r27
    16f6:	93 95       	inc	r25
    16f8:	f6 95       	lsr	r31
    16fa:	87 95       	ror	r24
    16fc:	77 95       	ror	r23
    16fe:	67 95       	ror	r22
    1700:	b7 95       	ror	r27
    1702:	f1 11       	cpse	r31, r1
    1704:	f8 cf       	rjmp	.-16     	; 0x16f6 <__floatsisf+0x1c>
    1706:	fa f4       	brpl	.+62     	; 0x1746 <__floatsisf+0x6c>
    1708:	bb 0f       	add	r27, r27
    170a:	11 f4       	brne	.+4      	; 0x1710 <__floatsisf+0x36>
    170c:	60 ff       	sbrs	r22, 0
    170e:	1b c0       	rjmp	.+54     	; 0x1746 <__floatsisf+0x6c>
    1710:	6f 5f       	subi	r22, 0xFF	; 255
    1712:	7f 4f       	sbci	r23, 0xFF	; 255
    1714:	8f 4f       	sbci	r24, 0xFF	; 255
    1716:	9f 4f       	sbci	r25, 0xFF	; 255
    1718:	16 c0       	rjmp	.+44     	; 0x1746 <__floatsisf+0x6c>
    171a:	88 23       	and	r24, r24
    171c:	11 f0       	breq	.+4      	; 0x1722 <__floatsisf+0x48>
    171e:	96 e9       	ldi	r25, 0x96	; 150
    1720:	11 c0       	rjmp	.+34     	; 0x1744 <__floatsisf+0x6a>
    1722:	77 23       	and	r23, r23
    1724:	21 f0       	breq	.+8      	; 0x172e <__floatsisf+0x54>
    1726:	9e e8       	ldi	r25, 0x8E	; 142
    1728:	87 2f       	mov	r24, r23
    172a:	76 2f       	mov	r23, r22
    172c:	05 c0       	rjmp	.+10     	; 0x1738 <__floatsisf+0x5e>
    172e:	66 23       	and	r22, r22
    1730:	71 f0       	breq	.+28     	; 0x174e <__floatsisf+0x74>
    1732:	96 e8       	ldi	r25, 0x86	; 134
    1734:	86 2f       	mov	r24, r22
    1736:	70 e0       	ldi	r23, 0x00	; 0
    1738:	60 e0       	ldi	r22, 0x00	; 0
    173a:	2a f0       	brmi	.+10     	; 0x1746 <__floatsisf+0x6c>
    173c:	9a 95       	dec	r25
    173e:	66 0f       	add	r22, r22
    1740:	77 1f       	adc	r23, r23
    1742:	88 1f       	adc	r24, r24
    1744:	da f7       	brpl	.-10     	; 0x173c <__floatsisf+0x62>
    1746:	88 0f       	add	r24, r24
    1748:	96 95       	lsr	r25
    174a:	87 95       	ror	r24
    174c:	97 f9       	bld	r25, 7
    174e:	08 95       	ret

00001750 <__fp_cmp>:
    1750:	99 0f       	add	r25, r25
    1752:	00 08       	sbc	r0, r0
    1754:	55 0f       	add	r21, r21
    1756:	aa 0b       	sbc	r26, r26
    1758:	e0 e8       	ldi	r30, 0x80	; 128
    175a:	fe ef       	ldi	r31, 0xFE	; 254
    175c:	16 16       	cp	r1, r22
    175e:	17 06       	cpc	r1, r23
    1760:	e8 07       	cpc	r30, r24
    1762:	f9 07       	cpc	r31, r25
    1764:	c0 f0       	brcs	.+48     	; 0x1796 <__fp_cmp+0x46>
    1766:	12 16       	cp	r1, r18
    1768:	13 06       	cpc	r1, r19
    176a:	e4 07       	cpc	r30, r20
    176c:	f5 07       	cpc	r31, r21
    176e:	98 f0       	brcs	.+38     	; 0x1796 <__fp_cmp+0x46>
    1770:	62 1b       	sub	r22, r18
    1772:	73 0b       	sbc	r23, r19
    1774:	84 0b       	sbc	r24, r20
    1776:	95 0b       	sbc	r25, r21
    1778:	39 f4       	brne	.+14     	; 0x1788 <__fp_cmp+0x38>
    177a:	0a 26       	eor	r0, r26
    177c:	61 f0       	breq	.+24     	; 0x1796 <__fp_cmp+0x46>
    177e:	23 2b       	or	r18, r19
    1780:	24 2b       	or	r18, r20
    1782:	25 2b       	or	r18, r21
    1784:	21 f4       	brne	.+8      	; 0x178e <__fp_cmp+0x3e>
    1786:	08 95       	ret
    1788:	0a 26       	eor	r0, r26
    178a:	09 f4       	brne	.+2      	; 0x178e <__fp_cmp+0x3e>
    178c:	a1 40       	sbci	r26, 0x01	; 1
    178e:	a6 95       	lsr	r26
    1790:	8f ef       	ldi	r24, 0xFF	; 255
    1792:	81 1d       	adc	r24, r1
    1794:	81 1d       	adc	r24, r1
    1796:	08 95       	ret

00001798 <__fp_inf>:
    1798:	97 f9       	bld	r25, 7
    179a:	9f 67       	ori	r25, 0x7F	; 127
    179c:	80 e8       	ldi	r24, 0x80	; 128
    179e:	70 e0       	ldi	r23, 0x00	; 0
    17a0:	60 e0       	ldi	r22, 0x00	; 0
    17a2:	08 95       	ret

000017a4 <__fp_nan>:
    17a4:	9f ef       	ldi	r25, 0xFF	; 255
    17a6:	80 ec       	ldi	r24, 0xC0	; 192
    17a8:	08 95       	ret

000017aa <__fp_pscA>:
    17aa:	00 24       	eor	r0, r0
    17ac:	0a 94       	dec	r0
    17ae:	16 16       	cp	r1, r22
    17b0:	17 06       	cpc	r1, r23
    17b2:	18 06       	cpc	r1, r24
    17b4:	09 06       	cpc	r0, r25
    17b6:	08 95       	ret

000017b8 <__fp_pscB>:
    17b8:	00 24       	eor	r0, r0
    17ba:	0a 94       	dec	r0
    17bc:	12 16       	cp	r1, r18
    17be:	13 06       	cpc	r1, r19
    17c0:	14 06       	cpc	r1, r20
    17c2:	05 06       	cpc	r0, r21
    17c4:	08 95       	ret

000017c6 <__fp_round>:
    17c6:	09 2e       	mov	r0, r25
    17c8:	03 94       	inc	r0
    17ca:	00 0c       	add	r0, r0
    17cc:	11 f4       	brne	.+4      	; 0x17d2 <__fp_round+0xc>
    17ce:	88 23       	and	r24, r24
    17d0:	52 f0       	brmi	.+20     	; 0x17e6 <__fp_round+0x20>
    17d2:	bb 0f       	add	r27, r27
    17d4:	40 f4       	brcc	.+16     	; 0x17e6 <__fp_round+0x20>
    17d6:	bf 2b       	or	r27, r31
    17d8:	11 f4       	brne	.+4      	; 0x17de <__fp_round+0x18>
    17da:	60 ff       	sbrs	r22, 0
    17dc:	04 c0       	rjmp	.+8      	; 0x17e6 <__fp_round+0x20>
    17de:	6f 5f       	subi	r22, 0xFF	; 255
    17e0:	7f 4f       	sbci	r23, 0xFF	; 255
    17e2:	8f 4f       	sbci	r24, 0xFF	; 255
    17e4:	9f 4f       	sbci	r25, 0xFF	; 255
    17e6:	08 95       	ret

000017e8 <__fp_split3>:
    17e8:	57 fd       	sbrc	r21, 7
    17ea:	90 58       	subi	r25, 0x80	; 128
    17ec:	44 0f       	add	r20, r20
    17ee:	55 1f       	adc	r21, r21
    17f0:	59 f0       	breq	.+22     	; 0x1808 <__fp_splitA+0x10>
    17f2:	5f 3f       	cpi	r21, 0xFF	; 255
    17f4:	71 f0       	breq	.+28     	; 0x1812 <__fp_splitA+0x1a>
    17f6:	47 95       	ror	r20

000017f8 <__fp_splitA>:
    17f8:	88 0f       	add	r24, r24
    17fa:	97 fb       	bst	r25, 7
    17fc:	99 1f       	adc	r25, r25
    17fe:	61 f0       	breq	.+24     	; 0x1818 <__fp_splitA+0x20>
    1800:	9f 3f       	cpi	r25, 0xFF	; 255
    1802:	79 f0       	breq	.+30     	; 0x1822 <__fp_splitA+0x2a>
    1804:	87 95       	ror	r24
    1806:	08 95       	ret
    1808:	12 16       	cp	r1, r18
    180a:	13 06       	cpc	r1, r19
    180c:	14 06       	cpc	r1, r20
    180e:	55 1f       	adc	r21, r21
    1810:	f2 cf       	rjmp	.-28     	; 0x17f6 <__fp_split3+0xe>
    1812:	46 95       	lsr	r20
    1814:	f1 df       	rcall	.-30     	; 0x17f8 <__fp_splitA>
    1816:	08 c0       	rjmp	.+16     	; 0x1828 <__fp_splitA+0x30>
    1818:	16 16       	cp	r1, r22
    181a:	17 06       	cpc	r1, r23
    181c:	18 06       	cpc	r1, r24
    181e:	99 1f       	adc	r25, r25
    1820:	f1 cf       	rjmp	.-30     	; 0x1804 <__fp_splitA+0xc>
    1822:	86 95       	lsr	r24
    1824:	71 05       	cpc	r23, r1
    1826:	61 05       	cpc	r22, r1
    1828:	08 94       	sec
    182a:	08 95       	ret

0000182c <__fp_zero>:
    182c:	e8 94       	clt

0000182e <__fp_szero>:
    182e:	bb 27       	eor	r27, r27
    1830:	66 27       	eor	r22, r22
    1832:	77 27       	eor	r23, r23
    1834:	cb 01       	movw	r24, r22
    1836:	97 f9       	bld	r25, 7
    1838:	08 95       	ret

0000183a <__gesf2>:
    183a:	8a df       	rcall	.-236    	; 0x1750 <__fp_cmp>
    183c:	08 f4       	brcc	.+2      	; 0x1840 <__gesf2+0x6>
    183e:	8f ef       	ldi	r24, 0xFF	; 255
    1840:	08 95       	ret

00001842 <__mulsf3>:
    1842:	0b d0       	rcall	.+22     	; 0x185a <__mulsf3x>
    1844:	c0 cf       	rjmp	.-128    	; 0x17c6 <__fp_round>
    1846:	b1 df       	rcall	.-158    	; 0x17aa <__fp_pscA>
    1848:	28 f0       	brcs	.+10     	; 0x1854 <__mulsf3+0x12>
    184a:	b6 df       	rcall	.-148    	; 0x17b8 <__fp_pscB>
    184c:	18 f0       	brcs	.+6      	; 0x1854 <__mulsf3+0x12>
    184e:	95 23       	and	r25, r21
    1850:	09 f0       	breq	.+2      	; 0x1854 <__mulsf3+0x12>
    1852:	a2 cf       	rjmp	.-188    	; 0x1798 <__fp_inf>
    1854:	a7 cf       	rjmp	.-178    	; 0x17a4 <__fp_nan>
    1856:	11 24       	eor	r1, r1
    1858:	ea cf       	rjmp	.-44     	; 0x182e <__fp_szero>

0000185a <__mulsf3x>:
    185a:	c6 df       	rcall	.-116    	; 0x17e8 <__fp_split3>
    185c:	a0 f3       	brcs	.-24     	; 0x1846 <__mulsf3+0x4>

0000185e <__mulsf3_pse>:
    185e:	95 9f       	mul	r25, r21
    1860:	d1 f3       	breq	.-12     	; 0x1856 <__mulsf3+0x14>
    1862:	95 0f       	add	r25, r21
    1864:	50 e0       	ldi	r21, 0x00	; 0
    1866:	55 1f       	adc	r21, r21
    1868:	62 9f       	mul	r22, r18
    186a:	f0 01       	movw	r30, r0
    186c:	72 9f       	mul	r23, r18
    186e:	bb 27       	eor	r27, r27
    1870:	f0 0d       	add	r31, r0
    1872:	b1 1d       	adc	r27, r1
    1874:	63 9f       	mul	r22, r19
    1876:	aa 27       	eor	r26, r26
    1878:	f0 0d       	add	r31, r0
    187a:	b1 1d       	adc	r27, r1
    187c:	aa 1f       	adc	r26, r26
    187e:	64 9f       	mul	r22, r20
    1880:	66 27       	eor	r22, r22
    1882:	b0 0d       	add	r27, r0
    1884:	a1 1d       	adc	r26, r1
    1886:	66 1f       	adc	r22, r22
    1888:	82 9f       	mul	r24, r18
    188a:	22 27       	eor	r18, r18
    188c:	b0 0d       	add	r27, r0
    188e:	a1 1d       	adc	r26, r1
    1890:	62 1f       	adc	r22, r18
    1892:	73 9f       	mul	r23, r19
    1894:	b0 0d       	add	r27, r0
    1896:	a1 1d       	adc	r26, r1
    1898:	62 1f       	adc	r22, r18
    189a:	83 9f       	mul	r24, r19
    189c:	a0 0d       	add	r26, r0
    189e:	61 1d       	adc	r22, r1
    18a0:	22 1f       	adc	r18, r18
    18a2:	74 9f       	mul	r23, r20
    18a4:	33 27       	eor	r19, r19
    18a6:	a0 0d       	add	r26, r0
    18a8:	61 1d       	adc	r22, r1
    18aa:	23 1f       	adc	r18, r19
    18ac:	84 9f       	mul	r24, r20
    18ae:	60 0d       	add	r22, r0
    18b0:	21 1d       	adc	r18, r1
    18b2:	82 2f       	mov	r24, r18
    18b4:	76 2f       	mov	r23, r22
    18b6:	6a 2f       	mov	r22, r26
    18b8:	11 24       	eor	r1, r1
    18ba:	9f 57       	subi	r25, 0x7F	; 127
    18bc:	50 40       	sbci	r21, 0x00	; 0
    18be:	8a f0       	brmi	.+34     	; 0x18e2 <__mulsf3_pse+0x84>
    18c0:	e1 f0       	breq	.+56     	; 0x18fa <__mulsf3_pse+0x9c>
    18c2:	88 23       	and	r24, r24
    18c4:	4a f0       	brmi	.+18     	; 0x18d8 <__mulsf3_pse+0x7a>
    18c6:	ee 0f       	add	r30, r30
    18c8:	ff 1f       	adc	r31, r31
    18ca:	bb 1f       	adc	r27, r27
    18cc:	66 1f       	adc	r22, r22
    18ce:	77 1f       	adc	r23, r23
    18d0:	88 1f       	adc	r24, r24
    18d2:	91 50       	subi	r25, 0x01	; 1
    18d4:	50 40       	sbci	r21, 0x00	; 0
    18d6:	a9 f7       	brne	.-22     	; 0x18c2 <__mulsf3_pse+0x64>
    18d8:	9e 3f       	cpi	r25, 0xFE	; 254
    18da:	51 05       	cpc	r21, r1
    18dc:	70 f0       	brcs	.+28     	; 0x18fa <__mulsf3_pse+0x9c>
    18de:	5c cf       	rjmp	.-328    	; 0x1798 <__fp_inf>
    18e0:	a6 cf       	rjmp	.-180    	; 0x182e <__fp_szero>
    18e2:	5f 3f       	cpi	r21, 0xFF	; 255
    18e4:	ec f3       	brlt	.-6      	; 0x18e0 <__mulsf3_pse+0x82>
    18e6:	98 3e       	cpi	r25, 0xE8	; 232
    18e8:	dc f3       	brlt	.-10     	; 0x18e0 <__mulsf3_pse+0x82>
    18ea:	86 95       	lsr	r24
    18ec:	77 95       	ror	r23
    18ee:	67 95       	ror	r22
    18f0:	b7 95       	ror	r27
    18f2:	f7 95       	ror	r31
    18f4:	e7 95       	ror	r30
    18f6:	9f 5f       	subi	r25, 0xFF	; 255
    18f8:	c1 f7       	brne	.-16     	; 0x18ea <__mulsf3_pse+0x8c>
    18fa:	fe 2b       	or	r31, r30
    18fc:	88 0f       	add	r24, r24
    18fe:	91 1d       	adc	r25, r1
    1900:	96 95       	lsr	r25
    1902:	87 95       	ror	r24
    1904:	97 f9       	bld	r25, 7
    1906:	08 95       	ret

00001908 <__udivmodsi4>:
    1908:	a1 e2       	ldi	r26, 0x21	; 33
    190a:	1a 2e       	mov	r1, r26
    190c:	aa 1b       	sub	r26, r26
    190e:	bb 1b       	sub	r27, r27
    1910:	fd 01       	movw	r30, r26
    1912:	0d c0       	rjmp	.+26     	; 0x192e <__udivmodsi4_ep>

00001914 <__udivmodsi4_loop>:
    1914:	aa 1f       	adc	r26, r26
    1916:	bb 1f       	adc	r27, r27
    1918:	ee 1f       	adc	r30, r30
    191a:	ff 1f       	adc	r31, r31
    191c:	a2 17       	cp	r26, r18
    191e:	b3 07       	cpc	r27, r19
    1920:	e4 07       	cpc	r30, r20
    1922:	f5 07       	cpc	r31, r21
    1924:	20 f0       	brcs	.+8      	; 0x192e <__udivmodsi4_ep>
    1926:	a2 1b       	sub	r26, r18
    1928:	b3 0b       	sbc	r27, r19
    192a:	e4 0b       	sbc	r30, r20
    192c:	f5 0b       	sbc	r31, r21

0000192e <__udivmodsi4_ep>:
    192e:	66 1f       	adc	r22, r22
    1930:	77 1f       	adc	r23, r23
    1932:	88 1f       	adc	r24, r24
    1934:	99 1f       	adc	r25, r25
    1936:	1a 94       	dec	r1
    1938:	69 f7       	brne	.-38     	; 0x1914 <__udivmodsi4_loop>
    193a:	60 95       	com	r22
    193c:	70 95       	com	r23
    193e:	80 95       	com	r24
    1940:	90 95       	com	r25
    1942:	9b 01       	movw	r18, r22
    1944:	ac 01       	movw	r20, r24
    1946:	bd 01       	movw	r22, r26
    1948:	cf 01       	movw	r24, r30
    194a:	08 95       	ret

0000194c <__tablejump2__>:
    194c:	ee 0f       	add	r30, r30
    194e:	ff 1f       	adc	r31, r31
    1950:	88 1f       	adc	r24, r24
    1952:	8b bf       	out	0x3b, r24	; 59
    1954:	07 90       	elpm	r0, Z+
    1956:	f6 91       	elpm	r31, Z
    1958:	e0 2d       	mov	r30, r0
    195a:	19 94       	eijmp

0000195c <_exit>:
    195c:	f8 94       	cli

0000195e <__stop_program>:
    195e:	ff cf       	rjmp	.-2      	; 0x195e <__stop_program>
